 diversity

 Timestamp is 58a987dc (Sun Feb 19 13:56:12 2017)

 Preferred load address is 0000000180000000

 Start         Length     Name                   Class
 0001:00000000 00001391H .text$di                CODE
 0001:000013a0 0000a172H .text$mn                CODE
 0001:0000b520 00000b20H .text$x                 CODE
 0001:0000c040 000002b1H .text$yd                CODE
 0002:00000000 00000360H .idata$5                DATA
 0002:00000360 00000008H .CRT$XCA                DATA
 0002:00000368 00000048H .CRT$XCU                DATA
 0002:000003b0 00000008H .CRT$XCZ                DATA
 0002:000003b8 00000008H .CRT$XIA                DATA
 0002:000003c0 00000008H .CRT$XIAA               DATA
 0002:000003c8 00000008H .CRT$XIC                DATA
 0002:000003d0 00000008H .CRT$XIZ                DATA
 0002:000003e0 00002150H .rdata                  DATA
 0002:00002530 00000090H .rdata$debug            DATA
 0002:000025c0 0000080cH .rdata$r                DATA
 0002:00002dd0 00000008H .rtc$IAA                DATA
 0002:00002dd8 00000008H .rtc$IZZ                DATA
 0002:00002de0 00000008H .rtc$TAA                DATA
 0002:00002de8 00000008H .rtc$TZZ                DATA
 0002:00002df0 00001cccH .xdata                  DATA
 0002:00004ac0 00000084H .xdata$x                DATA
 0002:00004b50 0000004fH .edata                  DATA
 0002:00004ba0 00000064H .idata$2                DATA
 0002:00004c04 00000014H .idata$3                DATA
 0002:00004c18 00000360H .idata$4                DATA
 0002:00004f78 00000c6eH .idata$6                DATA
 0003:00000000 0000010cH .data                   DATA
 0003:00000110 00000414H .data$r                 DATA
 0003:00000540 00000670H .bss                    DATA
 0004:00000000 00000bacH .pdata                  DATA

  Address         Publics by Value              Rva+Base               Lib:Object

 0000:00000000       ___safe_se_handler_count   0000000000000000     <absolute>
 0000:00000000       ___safe_se_handler_table   0000000000000000     <absolute>
 0000:00000000       __guard_fids_count         0000000000000000     <absolute>
 0000:00000000       __guard_fids_table         0000000000000000     <absolute>
 0000:00000000       __guard_flags              0000000000000000     <absolute>
 0000:00000000       __ImageBase                0000000180000000     <linker-defined>
 0001:000013a0       ??1?$_Deque_val@U?$_Deque_simple_types@J@std@@@std@@QEAA@XZ 00000001800023a0 f i tictoc.obj
 0001:000013a0       ??3@YAXPEAX0@Z             00000001800023a0 f i diversity.obj
 0001:000013a0       ??$destroy@PEAU?$_Tree_node@U?$pair@$$CBHV?$basic_string@DU?$char_traits@D@std@@V?$allocator@D@2@@std@@@std@@PEAX@std@@@?$_Wrap_alloc@V?$allocator@U?$_Tree_node@U?$pair@$$CBHV?$basic_string@DU?$char_traits@D@std@@V?$allocator@D@2@@std@@@std@@PEAX@std@@@std@@@std@@QEAAXPEAPEAU?$_Tree_node@U?$pair@$$CBHV?$basic_string@DU?$char_traits@D@std@@V?$allocator@D@2@@std@@@std@@PEAX@1@@Z 00000001800023a0 f i mex_opencv_2.4:MxArray.obj
 0001:000013a0       ??$destroy@PEAU?$_Tree_node@U?$pair@$$CBV?$basic_string@DU?$char_traits@D@std@@V?$allocator@D@2@@std@@H@std@@PEAX@std@@@?$_Wrap_alloc@V?$allocator@U?$_Tree_node@U?$pair@$$CBV?$basic_string@DU?$char_traits@D@std@@V?$allocator@D@2@@std@@H@std@@PEAX@std@@@std@@@std@@QEAAXPEAPEAU?$_Tree_node@U?$pair@$$CBV?$basic_string@DU?$char_traits@D@std@@V?$allocator@D@2@@std@@H@std@@PEAX@1@@Z 00000001800023a0 f i mex_opencv_2.4:MxArray.obj
 0001:000013a0       ??$destroy@PEAD@?$_Wrap_alloc@V?$allocator@D@std@@@std@@QEAAXPEAPEAD@Z 00000001800023a0 f i diversity.obj
 0001:000013a0       ??$destroy@PEAU?$_Tree_node@U?$pair@$$CBW4mxClassID@@H@std@@PEAX@std@@@?$_Wrap_alloc@V?$allocator@U?$_Tree_node@U?$pair@$$CBW4mxClassID@@H@std@@PEAX@std@@@std@@@std@@QEAAXPEAPEAU?$_Tree_node@U?$pair@$$CBW4mxClassID@@H@std@@PEAX@1@@Z 00000001800023a0 f i mex_opencv_2.4:MxArray.obj
 0001:000013a0       ??$_Uninit_def_fill_n@PEAUddisScanParams@@_KV?$allocator@UddisScanParams@@@std@@U1@@std@@YAXPEAUddisScanParams@@_KAEAU?$_Wrap_alloc@V?$allocator@UddisScanParams@@@std@@@0@0U_Nonscalar_ptr_iterator_tag@0@@Z 00000001800023a0 f i deformableDiversity.obj
 0001:000013a0       ?_Destroy@?$vector@PEBDV?$allocator@PEBD@std@@@std@@IEAAXPEAPEBD0@Z 00000001800023a0 f i main.obj
 0001:000013a0       ??$destroy@PEAU?$_Tree_node@U?$pair@$$CBHW4mxClassID@@@std@@PEAX@std@@@?$_Wrap_alloc@V?$allocator@U?$_Tree_node@U?$pair@$$CBHW4mxClassID@@@std@@PEAX@std@@@std@@@std@@QEAAXPEAPEAU?$_Tree_node@U?$pair@$$CBHW4mxClassID@@@std@@PEAX@1@@Z 00000001800023a0 f i mex_opencv_2.4:MxArray.obj
 0001:000013a0       ??$destroy@U_Container_proxy@std@@@?$_Wrap_alloc@V?$allocator@U_Container_proxy@std@@@std@@@std@@QEAAXPEAU_Container_proxy@1@@Z 00000001800023a0 f i tictoc.obj
 0001:000013b0       ??_G_System_error_category@std@@UEAAPEAXI@Z 00000001800023b0 f i diversity.obj
 0001:000013b0       ??_Eerror_category@std@@UEAAPEAXI@Z 00000001800023b0 f i * CIL library *:* CIL module *
 0001:000013b0       ??_E_System_error_category@std@@UEAAPEAXI@Z 00000001800023b0 f i * CIL library *:* CIL module *
 0001:000013b0       ??_E_Generic_error_category@std@@UEAAPEAXI@Z 00000001800023b0 f i * CIL library *:* CIL module *
 0001:000013b0       ??_Gerror_category@std@@UEAAPEAXI@Z 00000001800023b0 f i diversity.obj
 0001:000013b0       ??_G_Iostream_error_category@std@@UEAAPEAXI@Z 00000001800023b0 f i diversity.obj
 0001:000013b0       ??_E_Iostream_error_category@std@@UEAAPEAXI@Z 00000001800023b0 f i * CIL library *:* CIL module *
 0001:000013b0       ??_G_Generic_error_category@std@@UEAAPEAXI@Z 00000001800023b0 f i diversity.obj
 0001:000013e0       ?default_error_condition@error_category@std@@UEBA?AVerror_condition@2@H@Z 00000001800023e0 f i diversity.obj
 0001:000013f0       ?equivalent@error_category@std@@UEBA_NHAEBVerror_condition@2@@Z 00000001800023f0 f i diversity.obj
 0001:00001430       ?equivalent@error_category@std@@UEBA_NAEBVerror_code@2@H@Z 0000000180002430 f i diversity.obj
 0001:00001450       ?name@_Generic_error_category@std@@UEBAPEBDXZ 0000000180002450 f i diversity.obj
 0001:00001460       ?message@_Generic_error_category@std@@UEBA?AV?$basic_string@DU?$char_traits@D@std@@V?$allocator@D@2@@2@H@Z 0000000180002460 f i diversity.obj
 0001:000014d0       ?name@_Iostream_error_category@std@@UEBAPEBDXZ 00000001800024d0 f i diversity.obj
 0001:000014e0       ?message@_Iostream_error_category@std@@UEBA?AV?$basic_string@DU?$char_traits@D@std@@V?$allocator@D@2@@2@H@Z 00000001800024e0 f i diversity.obj
 0001:00001530       ?name@_System_error_category@std@@UEBAPEBDXZ 0000000180002530 f i diversity.obj
 0001:00001540       ?message@_System_error_category@std@@UEBA?AV?$basic_string@DU?$char_traits@D@std@@V?$allocator@D@2@@2@H@Z 0000000180002540 f i diversity.obj
 0001:000015b0       ?default_error_condition@_System_error_category@std@@UEBA?AVerror_condition@2@H@Z 00000001800025b0 f i diversity.obj
 0001:000015f0       ??0WeightedCountArray@dis@@QEAA@V?$vector@MV?$allocator@M@std@@@std@@@Z 00000001800025f0 f i diversity.obj
 0001:00001700       ??1MxArray@@UEAA@XZ        0000000180002700 f i diversity.obj
 0001:00001710       ??_EMxArray@@UEAAPEAXI@Z   0000000180002710 f i * CIL library *:* CIL module *
 0001:00001710       ??_GMxArray@@UEAAPEAXI@Z   0000000180002710 f i diversity.obj
 0001:00001740       ?CalcDiversityMap@@YAXV?$Mat@H@dis@@HHV?$vector@MV?$allocator@M@std@@@std@@AEAV?$Mat@M@2@@Z 0000000180002740 f   diversity.obj
 0001:00001ae0       ?BuildWeightVector@@YA?AV?$vector@MV?$allocator@M@std@@@std@@V?$Mat@H@dis@@HH@Z 0000000180002ae0 f   diversity.obj
 0001:00001c20       ?DiversityCount@dis@@YAXPEAPEAUmxArray_tag@@HPEAPEBU2@@Z 0000000180002c20 f   diversity.obj
 0001:00001e20       ?WeightedDiversityCount@dis@@YAXPEAPEAUmxArray_tag@@HPEAPEBU2@@Z 0000000180002e20 f   diversity.obj
 0001:000021f0       ??1?$basic_string@DU?$char_traits@D@std@@V?$allocator@D@2@@std@@QEAA@XZ 00000001800031f0 f i diversity.obj
 0001:00002230       ??1CountArray@dis@@QEAA@XZ 0000000180003230 f i deformableDiversity.obj
 0001:00002230       ??1?$vector@MV?$allocator@M@std@@@std@@QEAA@XZ 0000000180003230 f i diversity.obj
 0001:00002230       ??1?$vector@NV?$allocator@N@std@@@std@@QEAA@XZ 0000000180003230 f i deformableDiversity.obj
 0001:00002230       ??1?$vector@UddisScanParams@@V?$allocator@UddisScanParams@@@std@@@std@@QEAA@XZ 0000000180003230 f i deformableDiversity.obj
 0001:00002230       ??1?$vector@PEBDV?$allocator@PEBD@std@@@std@@QEAA@XZ 0000000180003230 f i main.obj
 0001:00002230       ??1?$vector@HV?$allocator@H@std@@@std@@QEAA@XZ 0000000180003230 f i diversity.obj
 0001:00002260       ??0?$vector@HV?$allocator@H@std@@@std@@QEAA@AEBV01@@Z 0000000180003260 f i deformableDiversity.obj
 0001:00002260       ??0?$vector@MV?$allocator@M@std@@@std@@QEAA@AEBV01@@Z 0000000180003260 f i diversity.obj
 0001:000022d0       ?assign@?$basic_string@DU?$char_traits@D@std@@V?$allocator@D@2@@std@@QEAAAEAV12@AEBV12@_K1@Z 00000001800032d0 f i diversity.obj
 0001:00002400       ?_Construct_n@?$vector@HV?$allocator@H@std@@@std@@QEAAX_KPEBH@Z 0000000180003400 f i diversity.obj
 0001:00002460       ?_Construct_n@?$vector@MV?$allocator@M@std@@@std@@QEAAX_KPEBM@Z 0000000180003460 f i diversity.obj
 0001:000024c0       ?_Buy@?$vector@MV?$allocator@M@std@@@std@@IEAA_N_K@Z 00000001800034c0 f i diversity.obj
 0001:000024c0       ?_Buy@?$vector@HV?$allocator@H@std@@@std@@IEAA_N_K@Z 00000001800034c0 f i diversity.obj
 0001:00002540       ?assign@?$basic_string@DU?$char_traits@D@std@@V?$allocator@D@2@@std@@QEAAAEAV12@PEBD_K@Z 0000000180003540 f i diversity.obj
 0001:00002670       ?erase@?$basic_string@DU?$char_traits@D@std@@V?$allocator@D@2@@std@@QEAAAEAV12@_K0@Z 0000000180003670 f i diversity.obj
 0001:00002740       ?_Grow@?$basic_string@DU?$char_traits@D@std@@V?$allocator@D@2@@std@@QEAA_N_K_N@Z 0000000180003740 f i diversity.obj
 0001:00002810       ??0?$_Wrap_alloc@V?$allocator@U?$_Tree_node@U?$pair@$$CBHV?$basic_string@DU?$char_traits@D@std@@V?$allocator@D@2@@std@@@std@@PEAX@std@@@std@@@std@@QEAA@AEBV?$allocator@U?$_Tree_node@U?$pair@$$CBHV?$basic_string@DU?$char_traits@D@std@@V?$allocator@D@2@@std@@@std@@PEAX@std@@@1@@Z 0000000180003810 f i mex_opencv_2.4:MxArray.obj
 0001:00002810       ??0?$_Wrap_alloc@V?$allocator@U?$_Tree_node@U?$pair@$$CBW4mxClassID@@H@std@@PEAX@std@@@std@@@std@@QEAA@XZ 0000000180003810 f i mex_opencv_2.4:MxArray.obj
 0001:00002810       ??0?$_Wrap_alloc@V?$allocator@U?$_Tree_node@U?$pair@$$CBV?$basic_string@DU?$char_traits@D@std@@V?$allocator@D@2@@std@@H@std@@PEAX@std@@@std@@@std@@QEAA@AEBV?$allocator@U?$_Tree_node@U?$pair@$$CBV?$basic_string@DU?$char_traits@D@std@@V?$allocator@D@2@@std@@H@std@@PEAX@std@@@1@@Z 0000000180003810 f i mex_opencv_2.4:MxArray.obj
 0001:00002810       ??0?$_Wrap_alloc@V?$allocator@U?$_Tree_node@U?$pair@$$CBW4mxClassID@@H@std@@PEAX@std@@@std@@@std@@QEAA@AEBV?$allocator@U?$_Tree_node@U?$pair@$$CBW4mxClassID@@H@std@@PEAX@std@@@1@@Z 0000000180003810 f i mex_opencv_2.4:MxArray.obj
 0001:00002810       ??0?$_Wrap_alloc@V?$allocator@U?$_Tree_node@U?$pair@$$CBHV?$basic_string@DU?$char_traits@D@std@@V?$allocator@D@2@@std@@@std@@PEAX@std@@@std@@@std@@QEAA@XZ 0000000180003810 f i mex_opencv_2.4:MxArray.obj
 0001:00002810       ??0?$_Wrap_alloc@V?$allocator@PEBD@std@@@std@@QEAA@XZ 0000000180003810 f i main.obj
 0001:00002810       ??0?$_Wrap_alloc@V?$allocator@U?$_Tree_node@U?$pair@$$CBHW4mxClassID@@@std@@PEAX@std@@@std@@@std@@QEAA@XZ 0000000180003810 f i mex_opencv_2.4:MxArray.obj
 0001:00002810       ??0?$_Wrap_alloc@V?$allocator@U?$_Tree_node@U?$pair@$$CBV?$basic_string@DU?$char_traits@D@std@@V?$allocator@D@2@@std@@H@std@@PEAX@std@@@std@@@std@@QEAA@XZ 0000000180003810 f i mex_opencv_2.4:MxArray.obj
 0001:00002810       ??0?$_Wrap_alloc@V?$allocator@U_Container_proxy@std@@@std@@@std@@QEAA@XZ 0000000180003810 f i tictoc.obj
 0001:00002810       ??0?$_Wrap_alloc@V?$allocator@D@std@@@std@@QEAA@XZ 0000000180003810 f i diversity.obj
 0001:00002810       ??0?$_Wrap_alloc@V?$allocator@U?$_Tree_node@U?$pair@$$CBHW4mxClassID@@@std@@PEAX@std@@@std@@@std@@QEAA@AEBV?$allocator@U?$_Tree_node@U?$pair@$$CBHW4mxClassID@@@std@@PEAX@std@@@1@@Z 0000000180003810 f i mex_opencv_2.4:MxArray.obj
 0001:00002820       ?_Copy@?$basic_string@DU?$char_traits@D@std@@V?$allocator@D@2@@std@@QEAAX_K0@Z 0000000180003820 f i diversity.obj
 0001:00002930       ??$toVector@M@MxArray@@QEBA?AV?$vector@MV?$allocator@M@std@@@std@@XZ 0000000180003930 f i diversity.obj
 0001:00002a50       ??0?$vector@MV?$allocator@M@std@@@std@@QEAA@_K@Z 0000000180003a50 f i diversity.obj
 0001:00002ab0       ??$at@M@MxArray@@QEBAM_K@Z 0000000180003ab0 f i diversity.obj
 0001:00002d00       ?excapsulate@@YA?AV?$basic_string@DU?$char_traits@D@std@@V?$allocator@D@2@@std@@V12@0@Z 0000000180003d00 f   main.obj
 0001:00002de0       ?BuildInputErrMessage@@YA?AV?$basic_string@DU?$char_traits@D@std@@V?$allocator@D@2@@std@@XZ 0000000180003de0 f   main.obj
 0001:00003140       ??_D?$basic_ostringstream@DU?$char_traits@D@std@@V?$allocator@D@2@@std@@QEAAXXZ 0000000180004140 f i main.obj
 0001:00003170       mexFunction                0000000180004170 f   main.obj
 0001:000036f0       ??0?$basic_string@DU?$char_traits@D@std@@V?$allocator@D@2@@std@@QEAA@$$QEAV01@@Z 00000001800046f0 f i main.obj
 0001:00003770       ??0?$vector@PEBDV?$allocator@PEBD@std@@@std@@QEAA@AEBV01@@Z 0000000180004770 f i main.obj
 0001:00003840       ??0?$basic_ostringstream@DU?$char_traits@D@std@@V?$allocator@D@2@@std@@QEAA@H@Z 0000000180004840 f i main.obj
 0001:00003900       ??1?$basic_ostringstream@DU?$char_traits@D@std@@V?$allocator@D@2@@std@@UEAA@XZ 0000000180004900 f i main.obj
 0001:000039b0       ?str@?$basic_ostringstream@DU?$char_traits@D@std@@V?$allocator@D@2@@std@@QEBA?AV?$basic_string@DU?$char_traits@D@std@@V?$allocator@D@2@@2@XZ 00000001800049b0 f i main.obj
 0001:000039e0       ?overflow@?$basic_stringbuf@DU?$char_traits@D@std@@V?$allocator@D@2@@std@@MEAAHH@Z 00000001800049e0 f i main.obj
 0001:00003c40       ?pbackfail@?$basic_stringbuf@DU?$char_traits@D@std@@V?$allocator@D@2@@std@@MEAAHH@Z 0000000180004c40 f i main.obj
 0001:00003c90       ?underflow@?$basic_stringbuf@DU?$char_traits@D@std@@V?$allocator@D@2@@std@@MEAAHXZ 0000000180004c90 f i main.obj
 0001:00003cf0       ?seekoff@?$basic_stringbuf@DU?$char_traits@D@std@@V?$allocator@D@2@@std@@MEAA?AV?$fpos@H@2@_JHH@Z 0000000180004cf0 f i main.obj
 0001:00003e80       ?seekpos@?$basic_stringbuf@DU?$char_traits@D@std@@V?$allocator@D@2@@std@@MEAA?AV?$fpos@H@2@V32@H@Z 0000000180004e80 f i main.obj
 0001:00003f90       ??_E?$basic_ostringstream@DU?$char_traits@D@std@@V?$allocator@D@2@@std@@UEAAPEAXI@Z 0000000180004f90 f i * CIL library *:* CIL module *
 0001:00003f90       ??_G?$basic_ostringstream@DU?$char_traits@D@std@@V?$allocator@D@2@@std@@UEAAPEAXI@Z 0000000180004f90 f i main.obj
 0001:00003ff0       ??_G?$basic_stringbuf@DU?$char_traits@D@std@@V?$allocator@D@2@@std@@UEAAPEAXI@Z 0000000180004ff0 f i main.obj
 0001:00003ff0       ??_E?$basic_stringbuf@DU?$char_traits@D@std@@V?$allocator@D@2@@std@@UEAAPEAXI@Z 0000000180004ff0 f i * CIL library *:* CIL module *
 0001:00004080       ?_Assign_rv@?$basic_string@DU?$char_traits@D@std@@V?$allocator@D@2@@std@@QEAAX$$QEAV12@@Z 0000000180005080 f i main.obj
 0001:000040f0       ?append@?$basic_string@DU?$char_traits@D@std@@V?$allocator@D@2@@std@@QEAAAEAV12@AEBV12@_K1@Z 00000001800050f0 f i main.obj
 0001:00004210       ?append@?$basic_string@DU?$char_traits@D@std@@V?$allocator@D@2@@std@@QEAAAEAV12@PEBD_K@Z 0000000180005210 f i main.obj
 0001:00004360       ?str@?$basic_stringbuf@DU?$char_traits@D@std@@V?$allocator@D@2@@std@@QEBA?AV?$basic_string@DU?$char_traits@D@std@@V?$allocator@D@2@@2@XZ 0000000180005360 f i main.obj
 0001:000044f0       ??1sentry@?$basic_ostream@DU?$char_traits@D@std@@@std@@QEAA@XZ 00000001800054f0 f i main.obj
 0001:00004540       ??1_Sentry_base@?$basic_ostream@DU?$char_traits@D@std@@@std@@QEAA@XZ 0000000180005540 f i main.obj
 0001:00004560       ??$?HDU?$char_traits@D@std@@V?$allocator@D@1@@std@@YA?AV?$basic_string@DU?$char_traits@D@std@@V?$allocator@D@2@@0@AEBV10@0@Z 0000000180005560 f i main.obj
 0001:00004620       ??$?HDU?$char_traits@D@std@@V?$allocator@D@1@@std@@YA?AV?$basic_string@DU?$char_traits@D@std@@V?$allocator@D@2@@0@$$QEAV10@AEBV10@@Z 0000000180005620 f i main.obj
 0001:00004660       ??$?6U?$char_traits@D@std@@@std@@YAAEAV?$basic_ostream@DU?$char_traits@D@std@@@0@AEAV10@PEBD@Z 0000000180005660 f i main.obj
 0001:00004830       ??$?6DU?$char_traits@D@std@@V?$allocator@D@1@@std@@YAAEAV?$basic_ostream@DU?$char_traits@D@std@@@0@AEAV10@AEBV?$basic_string@DU?$char_traits@D@std@@V?$allocator@D@2@@0@@Z 0000000180005830 f i main.obj
 0001:00004a00       ??$?HDU?$char_traits@D@std@@V?$allocator@D@1@@std@@YA?AV?$basic_string@DU?$char_traits@D@std@@V?$allocator@D@2@@0@$$QEAV10@0@Z 0000000180005a00 f i main.obj
 0001:00004a70       ??$stringJoin@PEBD@@YA?AV?$basic_string@DU?$char_traits@D@std@@V?$allocator@D@2@@std@@V01@V?$vector@PEBDV?$allocator@PEBD@std@@@1@@Z 0000000180005a70 f i main.obj
 0001:00004c60       ??$?6U?$char_traits@D@std@@@std@@YAAEAV?$basic_ostream@DU?$char_traits@D@std@@@0@AEAV10@D@Z 0000000180005c60 f i main.obj
 0001:00004e10       ?insert@?$basic_string@DU?$char_traits@D@std@@V?$allocator@D@2@@std@@QEAAAEAV12@_KAEBV12@00@Z 0000000180005e10 f i main.obj
 0001:00004f40       ??$_Insert@PEBQEBD@?$vector@PEBDV?$allocator@PEBD@std@@@std@@QEAAXV?$_Vector_const_iterator@V?$_Vector_val@U?$_Simple_types@PEBD@std@@@std@@@1@PEBQEBD1Uforward_iterator_tag@1@@Z 0000000180005f40 f i main.obj
 0001:00005120       ??$_Rotate@PEAPEBD_JPEBD@std@@YAXPEAPEBD00PEA_J0@Z 0000000180006120 f i main.obj
 0001:000051dc       ??_E?$basic_ostringstream@DU?$char_traits@D@std@@V?$allocator@D@2@@std@@$4PPPPPPPM@A@EAAPEAXI@Z 00000001800061dc f i main.obj
 0001:000051f0       ??1bad_alloc@std@@UEAA@XZ  00000001800061f0 f i deformableDiversity.obj
 0001:00005210       ??_Ebad_alloc@std@@UEAAPEAXI@Z 0000000180006210 f i * CIL library *:* CIL module *
 0001:00005210       ??_Gbad_alloc@std@@UEAAPEAXI@Z 0000000180006210 f i deformableDiversity.obj
 0001:00005250       ?throw_std_bad_alloc@internal@Eigen@@YAXXZ 0000000180006250 f i deformableDiversity.obj
 0001:000052a0       ??0bad_alloc@std@@QEAA@AEBV01@@Z 00000001800062a0 f i deformableDiversity.obj
 0001:000052d0       ??0CountArray@dis@@QEAA@H@Z 00000001800062d0 f i deformableDiversity.obj
 0001:00005380       ??0DeformableDiversityWeightArray@dis@@QEAA@HN@Z 0000000180006380 f i deformableDiversity.obj
 0001:00005490       ??1thread@std@@QEAA@XZ     0000000180006490 f i deformableDiversity.obj
 0001:000054b0       ?calculateOneWindowScore@@YANAEAV?$Window@H@dis@@AEBV?$Map@V?$Matrix@H$0?0$0?0$0A@$0?0$0?0@Eigen@@$0A@V?$Stride@$0A@$0A@@2@@Eigen@@VDeformableDiversityWeightArray@2@@Z 00000001800064b0 f   deformableDiversity.obj
 0001:00005710       ??1DeformableDiversityWeightArray@dis@@QEAA@XZ 0000000180006710 f i deformableDiversity.obj
 0001:00005760       ?CalcDDISRasterScan@@YAXV?$Mat@H@dis@@HHAEBV?$Map@V?$Matrix@H$0?0$0?0$0A@$0?0$0?0@Eigen@@$0A@V?$Stride@$0A@$0A@@2@@Eigen@@NAEAV?$Mat@M@2@HHPEAH@Z 0000000180006760 f   deformableDiversity.obj
 0001:00005fb0       ?CalcDDISRasterScan_ThreadFunc@@YAXUddisScanParams@@@Z 0000000180006fb0 f   deformableDiversity.obj
 0001:00006010       ?LoadXyPositions@@YA?AV?$Map@V?$Matrix@H$0?0$0?0$0A@$0?0$0?0@Eigen@@$0A@V?$Stride@$0A@$0A@@2@@Eigen@@PEAPEBUmxArray_tag@@@Z 0000000180007010 f   deformableDiversity.obj
 0001:00006150       ?DeformableDiversity@dis@@YAXPEAPEAUmxArray_tag@@HPEAPEBU2@I@Z 0000000180007150 f   deformableDiversity.obj
 0001:00006740       ??0?$vector@NV?$allocator@N@std@@@std@@QEAA@AEBV01@@Z 0000000180007740 f i deformableDiversity.obj
 0001:000067b0       ??0?$vector@UddisScanParams@@V?$allocator@UddisScanParams@@@std@@@std@@QEAA@_K@Z 00000001800077b0 f i deformableDiversity.obj
 0001:00006830       ??0?$vector@Vthread@std@@V?$allocator@Vthread@std@@@2@@std@@QEAA@_K@Z 0000000180007830 f i deformableDiversity.obj
 0001:000068d0       ??1?$vector@Vthread@std@@V?$allocator@Vthread@std@@@2@@std@@QEAA@XZ 00000001800078d0 f i deformableDiversity.obj
 0001:00006930       ?_Construct_n@?$vector@NV?$allocator@N@std@@@std@@QEAAX_KPEBN@Z 0000000180007930 f i deformableDiversity.obj
 0001:00006990       ?_Buy@?$vector@NV?$allocator@N@std@@@std@@IEAA_N_K@Z 0000000180007990 f i deformableDiversity.obj
 0001:00006a10       ?run@?$inplace_transpose_selector@V?$Map@V?$Matrix@H$0?0$0?0$0A@$0?0$0?0@Eigen@@$0A@V?$Stride@$0A@$0A@@2@@Eigen@@$0A@@internal@Eigen@@SAXAEAV?$Map@V?$Matrix@H$0?0$0?0$0A@$0?0$0?0@Eigen@@$0A@V?$Stride@$0A@$0A@@2@@3@@Z 0000000180007a10 f i deformableDiversity.obj
 0001:00006b60       ??1?$PlainObjectBase@V?$Matrix@H$0?0$0?0$00$0?0$0?0@Eigen@@@Eigen@@QEAA@XZ 0000000180007b60 f i deformableDiversity.obj
 0001:00006b70       ?eval@?$DenseBase@V?$Transpose@V?$Map@V?$Matrix@H$0?0$0?0$0A@$0?0$0?0@Eigen@@$0A@V?$Stride@$0A@$0A@@2@@Eigen@@@Eigen@@@Eigen@@QEBA?BV?$Matrix@H$0?0$0?0$00$0?0$0?0@2@XZ 0000000180007b70 f i deformableDiversity.obj
 0001:00006d80       ??$_Uninit_def_fill_n@PEAVthread@std@@_KV?$allocator@Vthread@std@@@2@V12@@std@@YAXPEAVthread@0@_KAEAU?$_Wrap_alloc@V?$allocator@Vthread@std@@@std@@@0@0U_Nonscalar_ptr_iterator_tag@0@@Z 0000000180007d80 f i deformableDiversity.obj
 0001:00006da0       ??1?$_LaunchPad@V?$_Bind@$00XQ6AXUddisScanParams@@@ZV?$reference_wrapper@UddisScanParams@@@std@@@std@@@std@@QEAA@XZ 0000000180007da0 f i deformableDiversity.obj
 0001:00006db0       ?_Go@?$_LaunchPad@V?$_Bind@$00XQ6AXUddisScanParams@@@ZV?$reference_wrapper@UddisScanParams@@@std@@@std@@@std@@UEAAIXZ 0000000180007db0 f i deformableDiversity.obj
 0001:00006e00       ??$conditional_aligned_new_auto@H$00@internal@Eigen@@YAPEAH_K@Z 0000000180007e00 f i deformableDiversity.obj
 0001:00006e60       ?run@?$triangular_assignment_selector@V?$SwapWrapper@V?$Map@V?$Matrix@H$0?0$0?0$0A@$0?0$0?0@Eigen@@$0A@V?$Stride@$0A@$0A@@2@@Eigen@@@Eigen@@V?$Transpose@V?$Map@V?$Matrix@H$0?0$0?0$0A@$0?0$0?0@Eigen@@$0A@V?$Stride@$0A@$0A@@2@@Eigen@@@2@$09$0?0$0A@@internal@Eigen@@SAXAEAV?$SwapWrapper@V?$Map@V?$Matrix@H$0?0$0?0$0A@$0?0$0?0@Eigen@@$0A@V?$Stride@$0A@$0A@@2@@Eigen@@@3@AEBV?$Transpose@V?$Map@V?$Matrix@H$0?0$0?0$0A@$0?0$0?0@Eigen@@$0A@V?$Stride@$0A@$0A@@2@@Eigen@@@3@@Z 0000000180007e60 f i deformableDiversity.obj
 0001:00006f50       ??$run@V?$Transpose@V?$Map@V?$Matrix@H$0?0$0?0$0A@$0?0$0?0@Eigen@@$0A@V?$Stride@$0A@$0A@@2@@Eigen@@@Eigen@@V?$Matrix@H$0?0$0?0$00$0?0$0?0@2@@?$unaligned_assign_impl@$0A@@internal@Eigen@@SAXAEBV?$Transpose@V?$Map@V?$Matrix@H$0?0$0?0$0A@$0?0$0?0@Eigen@@$0A@V?$Stride@$0A@$0A@@2@@Eigen@@@2@AEAV?$Matrix@H$0?0$0?0$00$0?0$0?0@2@_J2@Z 0000000180007f50 f i deformableDiversity.obj
 0001:00006f80       ?push_back@?$deque@JV?$allocator@J@std@@@std@@QEAAX$$QEAJ@Z 0000000180007f80 f i tictoc.obj
 0001:00007090       ?_Tidy@?$deque@JV?$allocator@J@std@@@std@@IEAAXXZ 0000000180008090 f i tictoc.obj
 0001:00007140       ?_Growmap@?$deque@JV?$allocator@J@std@@@std@@IEAAX_K@Z 0000000180008140 f i tictoc.obj
 0001:00007320       ??1?$map@HW4mxClassID@@U?$less@H@std@@V?$allocator@U?$pair@$$CBHW4mxClassID@@@std@@@3@@std@@QEAA@XZ 0000000180008320 f i mex_opencv_2.4:MxArray.obj
 0001:00007320       ??1?$map@W4mxClassID@@HU?$less@W4mxClassID@@@std@@V?$allocator@U?$pair@$$CBW4mxClassID@@H@std@@@3@@std@@QEAA@XZ 0000000180008320 f i mex_opencv_2.4:MxArray.obj
 0001:00007320       ??1?$ConstMap@HW4mxClassID@@@@QEAA@XZ 0000000180008320 f i mex_opencv_2.4:MxArray.obj
 0001:00007320       ??1?$ConstMap@W4mxClassID@@H@@QEAA@XZ 0000000180008320 f i mex_opencv_2.4:MxArray.obj
 0001:00007350       ??1?$map@HV?$basic_string@DU?$char_traits@D@std@@V?$allocator@D@2@@std@@U?$less@H@2@V?$allocator@U?$pair@$$CBHV?$basic_string@DU?$char_traits@D@std@@V?$allocator@D@2@@std@@@std@@@2@@std@@QEAA@XZ 0000000180008350 f i mex_opencv_2.4:MxArray.obj
 0001:00007350       ??1?$ConstMap@HV?$basic_string@DU?$char_traits@D@std@@V?$allocator@D@2@@std@@@@QEAA@XZ 0000000180008350 f i mex_opencv_2.4:MxArray.obj
 0001:00007380       ??1?$ConstMap@V?$basic_string@DU?$char_traits@D@std@@V?$allocator@D@2@@std@@H@@QEAA@XZ 0000000180008380 f i mex_opencv_2.4:MxArray.obj
 0001:00007380       ??1?$map@V?$basic_string@DU?$char_traits@D@std@@V?$allocator@D@2@@std@@HU?$less@V?$basic_string@DU?$char_traits@D@std@@V?$allocator@D@2@@std@@@2@V?$allocator@U?$pair@$$CBV?$basic_string@DU?$char_traits@D@std@@V?$allocator@D@2@@std@@H@std@@@2@@std@@QEAA@XZ 0000000180008380 f i mex_opencv_2.4:MxArray.obj
 0001:000073b0       ?toString@MxArray@@QEBA?AV?$basic_string@DU?$char_traits@D@std@@V?$allocator@D@2@@std@@XZ 00000001800083b0 f   mex_opencv_2.4:MxArray.obj
 0001:00007450       ?compare@?$basic_string@DU?$char_traits@D@std@@V?$allocator@D@2@@std@@QEBAHAEBV12@@Z 0000000180008450 f i mex_opencv_2.4:MxArray.obj
 0001:000074d0       ??1?$_Tree_comp@$0A@V?$_Tmap_traits@HW4mxClassID@@U?$less@H@std@@V?$allocator@U?$pair@$$CBHW4mxClassID@@@std@@@3@$0A@@std@@@std@@QEAA@XZ 00000001800084d0 f i mex_opencv_2.4:MxArray.obj
 0001:000074d0       ??1?$_Tree_comp@$0A@V?$_Tmap_traits@W4mxClassID@@HU?$less@W4mxClassID@@@std@@V?$allocator@U?$pair@$$CBW4mxClassID@@H@std@@@3@$0A@@std@@@std@@QEAA@XZ 00000001800084d0 f i mex_opencv_2.4:MxArray.obj
 0001:000074d0       ??1?$_Tree_comp@$0A@V?$_Tmap_traits@HV?$basic_string@DU?$char_traits@D@std@@V?$allocator@D@2@@std@@U?$less@H@2@V?$allocator@U?$pair@$$CBHV?$basic_string@DU?$char_traits@D@std@@V?$allocator@D@2@@std@@@std@@@2@$0A@@std@@@std@@QEAA@XZ 00000001800084d0 f i mex_opencv_2.4:MxArray.obj
 0001:000074d0       ??1?$_Tree_comp@$0A@V?$_Tmap_traits@V?$basic_string@DU?$char_traits@D@std@@V?$allocator@D@2@@std@@HU?$less@V?$basic_string@DU?$char_traits@D@std@@V?$allocator@D@2@@std@@@2@V?$allocator@U?$pair@$$CBV?$basic_string@DU?$char_traits@D@std@@V?$allocator@D@2@@std@@H@std@@@2@$0A@@std@@@std@@QEAA@XZ 00000001800084d0 f i mex_opencv_2.4:MxArray.obj
 0001:000074e0       ??0?$_Tree@V?$_Tmap_traits@V?$basic_string@DU?$char_traits@D@std@@V?$allocator@D@2@@std@@HU?$less@V?$basic_string@DU?$char_traits@D@std@@V?$allocator@D@2@@std@@@2@V?$allocator@U?$pair@$$CBV?$basic_string@DU?$char_traits@D@std@@V?$allocator@D@2@@std@@H@std@@@2@$0A@@std@@@std@@QEAA@AEBV01@AEBV?$allocator@U?$pair@$$CBV?$basic_string@DU?$char_traits@D@std@@V?$allocator@D@2@@std@@H@std@@@1@@Z 00000001800084e0 f i mex_opencv_2.4:MxArray.obj
 0001:00007540       ??0?$_Tree@V?$_Tmap_traits@W4mxClassID@@HU?$less@W4mxClassID@@@std@@V?$allocator@U?$pair@$$CBW4mxClassID@@H@std@@@3@$0A@@std@@@std@@QEAA@AEBV01@AEBV?$allocator@U?$pair@$$CBW4mxClassID@@H@std@@@1@@Z 0000000180008540 f i mex_opencv_2.4:MxArray.obj
 0001:000075a0       ??0?$_Tree@V?$_Tmap_traits@HW4mxClassID@@U?$less@H@std@@V?$allocator@U?$pair@$$CBHW4mxClassID@@@std@@@3@$0A@@std@@@std@@QEAA@AEBV01@AEBV?$allocator@U?$pair@$$CBHW4mxClassID@@@std@@@1@@Z 00000001800085a0 f i mex_opencv_2.4:MxArray.obj
 0001:00007600       ??0?$_Tree@V?$_Tmap_traits@HV?$basic_string@DU?$char_traits@D@std@@V?$allocator@D@2@@std@@U?$less@H@2@V?$allocator@U?$pair@$$CBHV?$basic_string@DU?$char_traits@D@std@@V?$allocator@D@2@@std@@@std@@@2@$0A@@std@@@std@@QEAA@AEBV01@AEBV?$allocator@U?$pair@$$CBHV?$basic_string@DU?$char_traits@D@std@@V?$allocator@D@2@@std@@@std@@@1@@Z 0000000180008600 f i mex_opencv_2.4:MxArray.obj
 0001:00007660       ?erase@?$_Tree@V?$_Tmap_traits@V?$basic_string@DU?$char_traits@D@std@@V?$allocator@D@2@@std@@HU?$less@V?$basic_string@DU?$char_traits@D@std@@V?$allocator@D@2@@std@@@2@V?$allocator@U?$pair@$$CBV?$basic_string@DU?$char_traits@D@std@@V?$allocator@D@2@@std@@H@std@@@2@$0A@@std@@@std@@QEAA?AV?$_Tree_iterator@V?$_Tree_val@U?$_Tree_simple_types@U?$pair@$$CBV?$basic_string@DU?$char_traits@D@std@@V?$allocator@D@2@@std@@H@std@@@std@@@std@@@2@V?$_Tree_const_iterator@V?$_Tree_val@U?$_Tree_simple_types@U?$pair@$$CBV?$basic_string@DU?$char_traits@D@std@@V?$allocator@D@2@@std@@H@std@@@std@@@std@@@2@0@Z 0000000180008660 f i mex_opencv_2.4:MxArray.obj
 0001:00007750       ?erase@?$_Tree@V?$_Tmap_traits@W4mxClassID@@HU?$less@W4mxClassID@@@std@@V?$allocator@U?$pair@$$CBW4mxClassID@@H@std@@@3@$0A@@std@@@std@@QEAA?AV?$_Tree_iterator@V?$_Tree_val@U?$_Tree_simple_types@U?$pair@$$CBW4mxClassID@@H@std@@@std@@@std@@@2@V?$_Tree_const_iterator@V?$_Tree_val@U?$_Tree_simple_types@U?$pair@$$CBW4mxClassID@@H@std@@@std@@@std@@@2@0@Z 0000000180008750 f i mex_opencv_2.4:MxArray.obj
 0001:00007750       ?erase@?$_Tree@V?$_Tmap_traits@HW4mxClassID@@U?$less@H@std@@V?$allocator@U?$pair@$$CBHW4mxClassID@@@std@@@3@$0A@@std@@@std@@QEAA?AV?$_Tree_iterator@V?$_Tree_val@U?$_Tree_simple_types@U?$pair@$$CBHW4mxClassID@@@std@@@std@@@std@@@2@V?$_Tree_const_iterator@V?$_Tree_val@U?$_Tree_simple_types@U?$pair@$$CBHW4mxClassID@@@std@@@std@@@std@@@2@0@Z 0000000180008750 f i mex_opencv_2.4:MxArray.obj
 0001:00007880       ?erase@?$_Tree@V?$_Tmap_traits@HV?$basic_string@DU?$char_traits@D@std@@V?$allocator@D@2@@std@@U?$less@H@2@V?$allocator@U?$pair@$$CBHV?$basic_string@DU?$char_traits@D@std@@V?$allocator@D@2@@std@@@std@@@2@$0A@@std@@@std@@QEAA?AV?$_Tree_iterator@V?$_Tree_val@U?$_Tree_simple_types@U?$pair@$$CBHV?$basic_string@DU?$char_traits@D@std@@V?$allocator@D@2@@std@@@std@@@std@@@std@@@2@V?$_Tree_const_iterator@V?$_Tree_val@U?$_Tree_simple_types@U?$pair@$$CBHV?$basic_string@DU?$char_traits@D@std@@V?$allocator@D@2@@std@@@std@@@std@@@std@@@2@0@Z 0000000180008880 f i mex_opencv_2.4:MxArray.obj
 0001:00007970       ?erase@?$_Tree@V?$_Tmap_traits@V?$basic_string@DU?$char_traits@D@std@@V?$allocator@D@2@@std@@HU?$less@V?$basic_string@DU?$char_traits@D@std@@V?$allocator@D@2@@std@@@2@V?$allocator@U?$pair@$$CBV?$basic_string@DU?$char_traits@D@std@@V?$allocator@D@2@@std@@H@std@@@2@$0A@@std@@@std@@QEAA?AV?$_Tree_iterator@V?$_Tree_val@U?$_Tree_simple_types@U?$pair@$$CBV?$basic_string@DU?$char_traits@D@std@@V?$allocator@D@2@@std@@H@std@@@std@@@std@@@2@V?$_Tree_const_iterator@V?$_Tree_val@U?$_Tree_simple_types@U?$pair@$$CBV?$basic_string@DU?$char_traits@D@std@@V?$allocator@D@2@@std@@H@std@@@std@@@std@@@2@@Z 0000000180008970 f i mex_opencv_2.4:MxArray.obj
 0001:00007dd0       ?select_on_container_copy_construction@?$allocator@U?$_Tree_node@U?$pair@$$CBW4mxClassID@@H@std@@PEAX@std@@@std@@QEBA?AV12@XZ 0000000180008dd0 f i mex_opencv_2.4:MxArray.obj
 0001:00007dd0       ?select_on_container_copy_construction@?$allocator@U?$_Tree_node@U?$pair@$$CBHV?$basic_string@DU?$char_traits@D@std@@V?$allocator@D@2@@std@@@std@@PEAX@std@@@std@@QEBA?AV12@XZ 0000000180008dd0 f i mex_opencv_2.4:MxArray.obj
 0001:00007dd0       ?select_on_container_copy_construction@?$allocator@U?$_Tree_node@U?$pair@$$CBV?$basic_string@DU?$char_traits@D@std@@V?$allocator@D@2@@std@@H@std@@PEAX@std@@@std@@QEBA?AV12@XZ 0000000180008dd0 f i mex_opencv_2.4:MxArray.obj
 0001:00007dd0       ?select_on_container_copy_construction@?$allocator@U?$_Tree_node@U?$pair@$$CBHW4mxClassID@@@std@@PEAX@std@@@std@@QEBA?AV12@XZ 0000000180008dd0 f i mex_opencv_2.4:MxArray.obj
 0001:00007de0       ?erase@?$_Tree@V?$_Tmap_traits@W4mxClassID@@HU?$less@W4mxClassID@@@std@@V?$allocator@U?$pair@$$CBW4mxClassID@@H@std@@@3@$0A@@std@@@std@@QEAA?AV?$_Tree_iterator@V?$_Tree_val@U?$_Tree_simple_types@U?$pair@$$CBW4mxClassID@@H@std@@@std@@@std@@@2@V?$_Tree_const_iterator@V?$_Tree_val@U?$_Tree_simple_types@U?$pair@$$CBW4mxClassID@@H@std@@@std@@@std@@@2@@Z 0000000180008de0 f i mex_opencv_2.4:MxArray.obj
 0001:00007de0       ?erase@?$_Tree@V?$_Tmap_traits@HW4mxClassID@@U?$less@H@std@@V?$allocator@U?$pair@$$CBHW4mxClassID@@@std@@@3@$0A@@std@@@std@@QEAA?AV?$_Tree_iterator@V?$_Tree_val@U?$_Tree_simple_types@U?$pair@$$CBHW4mxClassID@@@std@@@std@@@std@@@2@V?$_Tree_const_iterator@V?$_Tree_val@U?$_Tree_simple_types@U?$pair@$$CBHW4mxClassID@@@std@@@std@@@std@@@2@@Z 0000000180008de0 f i mex_opencv_2.4:MxArray.obj
 0001:00008210       ?erase@?$_Tree@V?$_Tmap_traits@HV?$basic_string@DU?$char_traits@D@std@@V?$allocator@D@2@@std@@U?$less@H@2@V?$allocator@U?$pair@$$CBHV?$basic_string@DU?$char_traits@D@std@@V?$allocator@D@2@@std@@@std@@@2@$0A@@std@@@std@@QEAA?AV?$_Tree_iterator@V?$_Tree_val@U?$_Tree_simple_types@U?$pair@$$CBHV?$basic_string@DU?$char_traits@D@std@@V?$allocator@D@2@@std@@@std@@@std@@@std@@@2@V?$_Tree_const_iterator@V?$_Tree_val@U?$_Tree_simple_types@U?$pair@$$CBHV?$basic_string@DU?$char_traits@D@std@@V?$allocator@D@2@@std@@@std@@@std@@@std@@@2@@Z 0000000180009210 f i mex_opencv_2.4:MxArray.obj
 0001:00008670       ?_Erase@?$_Tree@V?$_Tmap_traits@V?$basic_string@DU?$char_traits@D@std@@V?$allocator@D@2@@std@@HU?$less@V?$basic_string@DU?$char_traits@D@std@@V?$allocator@D@2@@std@@@2@V?$allocator@U?$pair@$$CBV?$basic_string@DU?$char_traits@D@std@@V?$allocator@D@2@@std@@H@std@@@2@$0A@@std@@@std@@IEAAXPEAU?$_Tree_node@U?$pair@$$CBV?$basic_string@DU?$char_traits@D@std@@V?$allocator@D@2@@std@@H@std@@PEAX@2@@Z 0000000180009670 f i mex_opencv_2.4:MxArray.obj
 0001:00008700       ?_Lrotate@?$_Tree@V?$_Tmap_traits@W4mxClassID@@HU?$less@W4mxClassID@@@std@@V?$allocator@U?$pair@$$CBW4mxClassID@@H@std@@@3@$0A@@std@@@std@@IEAAXPEAU?$_Tree_node@U?$pair@$$CBW4mxClassID@@H@std@@PEAX@2@@Z 0000000180009700 f i mex_opencv_2.4:MxArray.obj
 0001:00008700       ?_Lrotate@?$_Tree@V?$_Tmap_traits@V?$basic_string@DU?$char_traits@D@std@@V?$allocator@D@2@@std@@HU?$less@V?$basic_string@DU?$char_traits@D@std@@V?$allocator@D@2@@std@@@2@V?$allocator@U?$pair@$$CBV?$basic_string@DU?$char_traits@D@std@@V?$allocator@D@2@@std@@H@std@@@2@$0A@@std@@@std@@IEAAXPEAU?$_Tree_node@U?$pair@$$CBV?$basic_string@DU?$char_traits@D@std@@V?$allocator@D@2@@std@@H@std@@PEAX@2@@Z 0000000180009700 f i mex_opencv_2.4:MxArray.obj
 0001:00008700       ?_Lrotate@?$_Tree@V?$_Tmap_traits@HW4mxClassID@@U?$less@H@std@@V?$allocator@U?$pair@$$CBHW4mxClassID@@@std@@@3@$0A@@std@@@std@@IEAAXPEAU?$_Tree_node@U?$pair@$$CBHW4mxClassID@@@std@@PEAX@2@@Z 0000000180009700 f i mex_opencv_2.4:MxArray.obj
 0001:00008700       ?_Lrotate@?$_Tree@V?$_Tmap_traits@HV?$basic_string@DU?$char_traits@D@std@@V?$allocator@D@2@@std@@U?$less@H@2@V?$allocator@U?$pair@$$CBHV?$basic_string@DU?$char_traits@D@std@@V?$allocator@D@2@@std@@@std@@@2@$0A@@std@@@std@@IEAAXPEAU?$_Tree_node@U?$pair@$$CBHV?$basic_string@DU?$char_traits@D@std@@V?$allocator@D@2@@std@@@std@@PEAX@2@@Z 0000000180009700 f i mex_opencv_2.4:MxArray.obj
 0001:00008760       ?_Rrotate@?$_Tree@V?$_Tmap_traits@HV?$basic_string@DU?$char_traits@D@std@@V?$allocator@D@2@@std@@U?$less@H@2@V?$allocator@U?$pair@$$CBHV?$basic_string@DU?$char_traits@D@std@@V?$allocator@D@2@@std@@@std@@@2@$0A@@std@@@std@@IEAAXPEAU?$_Tree_node@U?$pair@$$CBHV?$basic_string@DU?$char_traits@D@std@@V?$allocator@D@2@@std@@@std@@PEAX@2@@Z 0000000180009760 f i mex_opencv_2.4:MxArray.obj
 0001:00008760       ?_Rrotate@?$_Tree@V?$_Tmap_traits@HW4mxClassID@@U?$less@H@std@@V?$allocator@U?$pair@$$CBHW4mxClassID@@@std@@@3@$0A@@std@@@std@@IEAAXPEAU?$_Tree_node@U?$pair@$$CBHW4mxClassID@@@std@@PEAX@2@@Z 0000000180009760 f i mex_opencv_2.4:MxArray.obj
 0001:00008760       ?_Rrotate@?$_Tree@V?$_Tmap_traits@W4mxClassID@@HU?$less@W4mxClassID@@@std@@V?$allocator@U?$pair@$$CBW4mxClassID@@H@std@@@3@$0A@@std@@@std@@IEAAXPEAU?$_Tree_node@U?$pair@$$CBW4mxClassID@@H@std@@PEAX@2@@Z 0000000180009760 f i mex_opencv_2.4:MxArray.obj
 0001:00008760       ?_Rrotate@?$_Tree@V?$_Tmap_traits@V?$basic_string@DU?$char_traits@D@std@@V?$allocator@D@2@@std@@HU?$less@V?$basic_string@DU?$char_traits@D@std@@V?$allocator@D@2@@std@@@2@V?$allocator@U?$pair@$$CBV?$basic_string@DU?$char_traits@D@std@@V?$allocator@D@2@@std@@H@std@@@2@$0A@@std@@@std@@IEAAXPEAU?$_Tree_node@U?$pair@$$CBV?$basic_string@DU?$char_traits@D@std@@V?$allocator@D@2@@std@@H@std@@PEAX@2@@Z 0000000180009760 f i mex_opencv_2.4:MxArray.obj
 0001:000087c0       ?_Erase@?$_Tree@V?$_Tmap_traits@W4mxClassID@@HU?$less@W4mxClassID@@@std@@V?$allocator@U?$pair@$$CBW4mxClassID@@H@std@@@3@$0A@@std@@@std@@IEAAXPEAU?$_Tree_node@U?$pair@$$CBW4mxClassID@@H@std@@PEAX@2@@Z 00000001800097c0 f i mex_opencv_2.4:MxArray.obj
 0001:000087c0       ?_Erase@?$_Tree@V?$_Tmap_traits@HW4mxClassID@@U?$less@H@std@@V?$allocator@U?$pair@$$CBHW4mxClassID@@@std@@@3@$0A@@std@@@std@@IEAAXPEAU?$_Tree_node@U?$pair@$$CBHW4mxClassID@@@std@@PEAX@2@@Z 00000001800097c0 f i mex_opencv_2.4:MxArray.obj
 0001:00008820       ?_Erase@?$_Tree@V?$_Tmap_traits@HV?$basic_string@DU?$char_traits@D@std@@V?$allocator@D@2@@std@@U?$less@H@2@V?$allocator@U?$pair@$$CBHV?$basic_string@DU?$char_traits@D@std@@V?$allocator@D@2@@std@@@std@@@2@$0A@@std@@@std@@IEAAXPEAU?$_Tree_node@U?$pair@$$CBHV?$basic_string@DU?$char_traits@D@std@@V?$allocator@D@2@@std@@@std@@PEAX@2@@Z 0000000180009820 f i mex_opencv_2.4:MxArray.obj
 0001:000088b0       ?_Buyheadnode@?$_Tree_alloc@$0A@U?$_Tree_base_types@U?$pair@$$CBHV?$basic_string@DU?$char_traits@D@std@@V?$allocator@D@2@@std@@@std@@V?$allocator@U?$pair@$$CBHV?$basic_string@DU?$char_traits@D@std@@V?$allocator@D@2@@std@@@std@@@2@@std@@@std@@QEAAPEAU?$_Tree_node@U?$pair@$$CBHV?$basic_string@DU?$char_traits@D@std@@V?$allocator@D@2@@std@@@std@@PEAX@2@XZ 00000001800098b0 f i mex_opencv_2.4:MxArray.obj
 0001:000088b0       ?_Buyheadnode@?$_Tree_alloc@$0A@U?$_Tree_base_types@U?$pair@$$CBV?$basic_string@DU?$char_traits@D@std@@V?$allocator@D@2@@std@@H@std@@V?$allocator@U?$pair@$$CBV?$basic_string@DU?$char_traits@D@std@@V?$allocator@D@2@@std@@H@std@@@2@@std@@@std@@QEAAPEAU?$_Tree_node@U?$pair@$$CBV?$basic_string@DU?$char_traits@D@std@@V?$allocator@D@2@@std@@H@std@@PEAX@2@XZ 00000001800098b0 f i mex_opencv_2.4:MxArray.obj
 0001:00008900       ?_Buyheadnode@?$_Tree_alloc@$0A@U?$_Tree_base_types@U?$pair@$$CBHW4mxClassID@@@std@@V?$allocator@U?$pair@$$CBHW4mxClassID@@@std@@@2@@std@@@std@@QEAAPEAU?$_Tree_node@U?$pair@$$CBHW4mxClassID@@@std@@PEAX@2@XZ 0000000180009900 f i mex_opencv_2.4:MxArray.obj
 0001:00008900       ?_Buyheadnode@?$_Tree_alloc@$0A@U?$_Tree_base_types@U?$pair@$$CBW4mxClassID@@H@std@@V?$allocator@U?$pair@$$CBW4mxClassID@@H@std@@@2@@std@@@std@@QEAAPEAU?$_Tree_node@U?$pair@$$CBW4mxClassID@@H@std@@PEAX@2@XZ 0000000180009900 f i mex_opencv_2.4:MxArray.obj
 0001:00008950       ??$at@H@MxArray@@QEBAH_K@Z 0000000180009950 f i mex_opencv_2.4:MxArray.obj
 0001:00008ab0       ??$at@N@MxArray@@QEBAN_K@Z 0000000180009ab0 f i mex_opencv_2.4:MxArray.obj
 0001:00008cb0       ??$_Copy@U?$integral_constant@_N$0A@@std@@@?$_Tree@V?$_Tmap_traits@V?$basic_string@DU?$char_traits@D@std@@V?$allocator@D@2@@std@@HU?$less@V?$basic_string@DU?$char_traits@D@std@@V?$allocator@D@2@@std@@@2@V?$allocator@U?$pair@$$CBV?$basic_string@DU?$char_traits@D@std@@V?$allocator@D@2@@std@@H@std@@@2@$0A@@std@@@std@@IEAAXAEBV01@U?$integral_constant@_N$0A@@1@@Z 0000000180009cb0 f i mex_opencv_2.4:MxArray.obj
 0001:00008d80       ??$_Copy@U?$integral_constant@_N$0A@@std@@@?$_Tree@V?$_Tmap_traits@W4mxClassID@@HU?$less@W4mxClassID@@@std@@V?$allocator@U?$pair@$$CBW4mxClassID@@H@std@@@3@$0A@@std@@@std@@IEAAXAEBV01@U?$integral_constant@_N$0A@@1@@Z 0000000180009d80 f i mex_opencv_2.4:MxArray.obj
 0001:00008e50       ??$_Copy@U?$integral_constant@_N$0A@@std@@@?$_Tree@V?$_Tmap_traits@HW4mxClassID@@U?$less@H@std@@V?$allocator@U?$pair@$$CBHW4mxClassID@@@std@@@3@$0A@@std@@@std@@IEAAXAEBV01@U?$integral_constant@_N$0A@@1@@Z 0000000180009e50 f i mex_opencv_2.4:MxArray.obj
 0001:00008f20       ??$_Copy@U?$integral_constant@_N$0A@@std@@@?$_Tree@V?$_Tmap_traits@HV?$basic_string@DU?$char_traits@D@std@@V?$allocator@D@2@@std@@U?$less@H@2@V?$allocator@U?$pair@$$CBHV?$basic_string@DU?$char_traits@D@std@@V?$allocator@D@2@@std@@@std@@@2@$0A@@std@@@std@@IEAAXAEBV01@U?$integral_constant@_N$0A@@1@@Z 0000000180009f20 f i mex_opencv_2.4:MxArray.obj
 0001:00008ff0       ??$_Buynode@AEBUpiecewise_construct_t@std@@V?$tuple@AEBV?$basic_string@DU?$char_traits@D@std@@V?$allocator@D@2@@std@@@2@V?$tuple@$$$V@2@@?$_Tree_buy@U?$pair@$$CBV?$basic_string@DU?$char_traits@D@std@@V?$allocator@D@2@@std@@H@std@@V?$allocator@U?$pair@$$CBV?$basic_string@DU?$char_traits@D@std@@V?$allocator@D@2@@std@@H@std@@@2@@std@@QEAAPEAU?$_Tree_node@U?$pair@$$CBV?$basic_string@DU?$char_traits@D@std@@V?$allocator@D@2@@std@@H@std@@PEAX@1@AEBUpiecewise_construct_t@1@$$QEAV?$tuple@AEBV?$basic_string@DU?$char_traits@D@std@@V?$allocator@D@2@@std@@@1@$$QEAV?$tuple@$$$V@1@@Z 0000000180009ff0 f i mex_opencv_2.4:MxArray.obj
 0001:00009080       ??$_Insert_hint@AEAU?$pair@$$CBV?$basic_string@DU?$char_traits@D@std@@V?$allocator@D@2@@std@@H@std@@PEAU?$_Tree_node@U?$pair@$$CBV?$basic_string@DU?$char_traits@D@std@@V?$allocator@D@2@@std@@H@std@@PEAX@2@@?$_Tree@V?$_Tmap_traits@V?$basic_string@DU?$char_traits@D@std@@V?$allocator@D@2@@std@@HU?$less@V?$basic_string@DU?$char_traits@D@std@@V?$allocator@D@2@@std@@@2@V?$allocator@U?$pair@$$CBV?$basic_string@DU?$char_traits@D@std@@V?$allocator@D@2@@std@@H@std@@@2@$0A@@std@@@std@@IEAA?AV?$_Tree_iterator@V?$_Tree_val@U?$_Tree_simple_types@U?$pair@$$CBV?$basic_string@DU?$char_traits@D@std@@V?$allocator@D@2@@std@@H@std@@@std@@@std@@@1@V?$_Tree_const_iterator@V?$_Tree_val@U?$_Tree_simple_types@U?$pair@$$CBV?$basic_string@DU?$char_traits@D@std@@V?$allocator@D@2@@std@@H@std@@@std@@@std@@@1@AEAU?$pair@$$CBV?$basic_string@DU?$char_traits@D@std@@V?$allocator@D@2@@std@@H@1@PEAU?$_Tree_node@U?$pair@$$CBV?$basic_string@DU?$char_traits@D@std@@V?$allocator@D@2@@std@@H@std@@PEAX@1@@Z 000000018000a080 f i mex_opencv_2.4:MxArray.obj
 0001:00009310       ??$_Copy_nodes@U?$integral_constant@_N$0A@@std@@@?$_Tree@V?$_Tmap_traits@V?$basic_string@DU?$char_traits@D@std@@V?$allocator@D@2@@std@@HU?$less@V?$basic_string@DU?$char_traits@D@std@@V?$allocator@D@2@@std@@@2@V?$allocator@U?$pair@$$CBV?$basic_string@DU?$char_traits@D@std@@V?$allocator@D@2@@std@@H@std@@@2@$0A@@std@@@std@@IEAAPEAU?$_Tree_node@U?$pair@$$CBV?$basic_string@DU?$char_traits@D@std@@V?$allocator@D@2@@std@@H@std@@PEAX@1@PEAU21@0U?$integral_constant@_N$0A@@1@@Z 000000018000a310 f i mex_opencv_2.4:MxArray.obj
 0001:000093b0       ??$_Buynode@AEBUpiecewise_construct_t@std@@V?$tuple@AEBW4mxClassID@@@2@V?$tuple@$$$V@2@@?$_Tree_buy@U?$pair@$$CBW4mxClassID@@H@std@@V?$allocator@U?$pair@$$CBW4mxClassID@@H@std@@@2@@std@@QEAAPEAU?$_Tree_node@U?$pair@$$CBW4mxClassID@@H@std@@PEAX@1@AEBUpiecewise_construct_t@1@$$QEAV?$tuple@AEBW4mxClassID@@@1@$$QEAV?$tuple@$$$V@1@@Z 000000018000a3b0 f i mex_opencv_2.4:MxArray.obj
 0001:000093b0       ??$_Buynode@AEBUpiecewise_construct_t@std@@V?$tuple@AEBH@2@V?$tuple@$$$V@2@@?$_Tree_buy@U?$pair@$$CBHW4mxClassID@@@std@@V?$allocator@U?$pair@$$CBHW4mxClassID@@@std@@@2@@std@@QEAAPEAU?$_Tree_node@U?$pair@$$CBHW4mxClassID@@@std@@PEAX@1@AEBUpiecewise_construct_t@1@$$QEAV?$tuple@AEBH@1@$$QEAV?$tuple@$$$V@1@@Z 000000018000a3b0 f i mex_opencv_2.4:MxArray.obj
 0001:000093f0       ??$_Insert_hint@AEAU?$pair@$$CBW4mxClassID@@H@std@@PEAU?$_Tree_node@U?$pair@$$CBW4mxClassID@@H@std@@PEAX@2@@?$_Tree@V?$_Tmap_traits@W4mxClassID@@HU?$less@W4mxClassID@@@std@@V?$allocator@U?$pair@$$CBW4mxClassID@@H@std@@@3@$0A@@std@@@std@@IEAA?AV?$_Tree_iterator@V?$_Tree_val@U?$_Tree_simple_types@U?$pair@$$CBW4mxClassID@@H@std@@@std@@@std@@@1@V?$_Tree_const_iterator@V?$_Tree_val@U?$_Tree_simple_types@U?$pair@$$CBW4mxClassID@@H@std@@@std@@@std@@@1@AEAU?$pair@$$CBW4mxClassID@@H@1@PEAU?$_Tree_node@U?$pair@$$CBW4mxClassID@@H@std@@PEAX@1@@Z 000000018000a3f0 f i mex_opencv_2.4:MxArray.obj
 0001:000093f0       ??$_Insert_hint@AEAU?$pair@$$CBHW4mxClassID@@@std@@PEAU?$_Tree_node@U?$pair@$$CBHW4mxClassID@@@std@@PEAX@2@@?$_Tree@V?$_Tmap_traits@HW4mxClassID@@U?$less@H@std@@V?$allocator@U?$pair@$$CBHW4mxClassID@@@std@@@3@$0A@@std@@@std@@IEAA?AV?$_Tree_iterator@V?$_Tree_val@U?$_Tree_simple_types@U?$pair@$$CBHW4mxClassID@@@std@@@std@@@std@@@1@V?$_Tree_const_iterator@V?$_Tree_val@U?$_Tree_simple_types@U?$pair@$$CBHW4mxClassID@@@std@@@std@@@std@@@1@AEAU?$pair@$$CBHW4mxClassID@@@1@PEAU?$_Tree_node@U?$pair@$$CBHW4mxClassID@@@std@@PEAX@1@@Z 000000018000a3f0 f i mex_opencv_2.4:MxArray.obj
 0001:00009620       ??$_Copy_nodes@U?$integral_constant@_N$0A@@std@@@?$_Tree@V?$_Tmap_traits@W4mxClassID@@HU?$less@W4mxClassID@@@std@@V?$allocator@U?$pair@$$CBW4mxClassID@@H@std@@@3@$0A@@std@@@std@@IEAAPEAU?$_Tree_node@U?$pair@$$CBW4mxClassID@@H@std@@PEAX@1@PEAU21@0U?$integral_constant@_N$0A@@1@@Z 000000018000a620 f i mex_opencv_2.4:MxArray.obj
 0001:00009620       ??$_Copy_nodes@U?$integral_constant@_N$0A@@std@@@?$_Tree@V?$_Tmap_traits@HW4mxClassID@@U?$less@H@std@@V?$allocator@U?$pair@$$CBHW4mxClassID@@@std@@@3@$0A@@std@@@std@@IEAAPEAU?$_Tree_node@U?$pair@$$CBHW4mxClassID@@@std@@PEAX@1@PEAU21@0U?$integral_constant@_N$0A@@1@@Z 000000018000a620 f i mex_opencv_2.4:MxArray.obj
 0001:000096c0       ??$_Buynode@AEBUpiecewise_construct_t@std@@V?$tuple@AEBH@2@V?$tuple@$$$V@2@@?$_Tree_buy@U?$pair@$$CBHV?$basic_string@DU?$char_traits@D@std@@V?$allocator@D@2@@std@@@std@@V?$allocator@U?$pair@$$CBHV?$basic_string@DU?$char_traits@D@std@@V?$allocator@D@2@@std@@@std@@@2@@std@@QEAAPEAU?$_Tree_node@U?$pair@$$CBHV?$basic_string@DU?$char_traits@D@std@@V?$allocator@D@2@@std@@@std@@PEAX@1@AEBUpiecewise_construct_t@1@$$QEAV?$tuple@AEBH@1@$$QEAV?$tuple@$$$V@1@@Z 000000018000a6c0 f i mex_opencv_2.4:MxArray.obj
 0001:00009700       ??$_Insert_hint@AEAU?$pair@$$CBHV?$basic_string@DU?$char_traits@D@std@@V?$allocator@D@2@@std@@@std@@PEAU?$_Tree_node@U?$pair@$$CBHV?$basic_string@DU?$char_traits@D@std@@V?$allocator@D@2@@std@@@std@@PEAX@2@@?$_Tree@V?$_Tmap_traits@HV?$basic_string@DU?$char_traits@D@std@@V?$allocator@D@2@@std@@U?$less@H@2@V?$allocator@U?$pair@$$CBHV?$basic_string@DU?$char_traits@D@std@@V?$allocator@D@2@@std@@@std@@@2@$0A@@std@@@std@@IEAA?AV?$_Tree_iterator@V?$_Tree_val@U?$_Tree_simple_types@U?$pair@$$CBHV?$basic_string@DU?$char_traits@D@std@@V?$allocator@D@2@@std@@@std@@@std@@@std@@@1@V?$_Tree_const_iterator@V?$_Tree_val@U?$_Tree_simple_types@U?$pair@$$CBHV?$basic_string@DU?$char_traits@D@std@@V?$allocator@D@2@@std@@@std@@@std@@@std@@@1@AEAU?$pair@$$CBHV?$basic_string@DU?$char_traits@D@std@@V?$allocator@D@2@@std@@@1@PEAU?$_Tree_node@U?$pair@$$CBHV?$basic_string@DU?$char_traits@D@std@@V?$allocator@D@2@@std@@@std@@PEAX@1@@Z 000000018000a700 f i mex_opencv_2.4:MxArray.obj
 0001:00009930       ??$_Copy_nodes@U?$integral_constant@_N$0A@@std@@@?$_Tree@V?$_Tmap_traits@HV?$basic_string@DU?$char_traits@D@std@@V?$allocator@D@2@@std@@U?$less@H@2@V?$allocator@U?$pair@$$CBHV?$basic_string@DU?$char_traits@D@std@@V?$allocator@D@2@@std@@@std@@@2@$0A@@std@@@std@@IEAAPEAU?$_Tree_node@U?$pair@$$CBHV?$basic_string@DU?$char_traits@D@std@@V?$allocator@D@2@@std@@@std@@PEAX@1@PEAU21@0U?$integral_constant@_N$0A@@1@@Z 000000018000a930 f i mex_opencv_2.4:MxArray.obj
 0001:000099d0       ?_Destroy_if_not_nil@?$_Tree@V?$_Tmap_traits@V?$basic_string@DU?$char_traits@D@std@@V?$allocator@D@2@@std@@HU?$less@V?$basic_string@DU?$char_traits@D@std@@V?$allocator@D@2@@std@@@2@V?$allocator@U?$pair@$$CBV?$basic_string@DU?$char_traits@D@std@@V?$allocator@D@2@@std@@H@std@@@2@$0A@@std@@@std@@IEAAXPEAU?$_Tree_node@U?$pair@$$CBV?$basic_string@DU?$char_traits@D@std@@V?$allocator@D@2@@std@@H@std@@PEAX@2@@Z 000000018000a9d0 f i mex_opencv_2.4:MxArray.obj
 0001:00009a10       ?_Buynode0@?$_Tree_buy@U?$pair@$$CBV?$basic_string@DU?$char_traits@D@std@@V?$allocator@D@2@@std@@H@std@@V?$allocator@U?$pair@$$CBV?$basic_string@DU?$char_traits@D@std@@V?$allocator@D@2@@std@@H@std@@@2@@std@@QEAAPEAU?$_Tree_node@U?$pair@$$CBV?$basic_string@DU?$char_traits@D@std@@V?$allocator@D@2@@std@@H@std@@PEAX@2@XZ 000000018000aa10 f i mex_opencv_2.4:MxArray.obj
 0001:00009a10       ?_Buynode0@?$_Tree_buy@U?$pair@$$CBHV?$basic_string@DU?$char_traits@D@std@@V?$allocator@D@2@@std@@@std@@V?$allocator@U?$pair@$$CBHV?$basic_string@DU?$char_traits@D@std@@V?$allocator@D@2@@std@@@std@@@2@@std@@QEAAPEAU?$_Tree_node@U?$pair@$$CBHV?$basic_string@DU?$char_traits@D@std@@V?$allocator@D@2@@std@@@std@@PEAX@2@XZ 000000018000aa10 f i mex_opencv_2.4:MxArray.obj
 0001:00009a60       ?_Buynode0@?$_Tree_buy@U?$pair@$$CBHW4mxClassID@@@std@@V?$allocator@U?$pair@$$CBHW4mxClassID@@@std@@@2@@std@@QEAAPEAU?$_Tree_node@U?$pair@$$CBHW4mxClassID@@@std@@PEAX@2@XZ 000000018000aa60 f i mex_opencv_2.4:MxArray.obj
 0001:00009a60       ?_Buynode0@?$_Tree_buy@U?$pair@$$CBW4mxClassID@@H@std@@V?$allocator@U?$pair@$$CBW4mxClassID@@H@std@@@2@@std@@QEAAPEAU?$_Tree_node@U?$pair@$$CBW4mxClassID@@H@std@@PEAX@2@XZ 000000018000aa60 f i mex_opencv_2.4:MxArray.obj
 0001:00009ab0       ?_Destroy_if_not_nil@?$_Tree@V?$_Tmap_traits@HV?$basic_string@DU?$char_traits@D@std@@V?$allocator@D@2@@std@@U?$less@H@2@V?$allocator@U?$pair@$$CBHV?$basic_string@DU?$char_traits@D@std@@V?$allocator@D@2@@std@@@std@@@2@$0A@@std@@@std@@IEAAXPEAU?$_Tree_node@U?$pair@$$CBHV?$basic_string@DU?$char_traits@D@std@@V?$allocator@D@2@@std@@@std@@PEAX@2@@Z 000000018000aab0 f i mex_opencv_2.4:MxArray.obj
 0001:00009af0       ??$_Insert_at@AEAU?$pair@$$CBV?$basic_string@DU?$char_traits@D@std@@V?$allocator@D@2@@std@@H@std@@PEAU?$_Tree_node@U?$pair@$$CBV?$basic_string@DU?$char_traits@D@std@@V?$allocator@D@2@@std@@H@std@@PEAX@2@@?$_Tree@V?$_Tmap_traits@V?$basic_string@DU?$char_traits@D@std@@V?$allocator@D@2@@std@@HU?$less@V?$basic_string@DU?$char_traits@D@std@@V?$allocator@D@2@@std@@@2@V?$allocator@U?$pair@$$CBV?$basic_string@DU?$char_traits@D@std@@V?$allocator@D@2@@std@@H@std@@@2@$0A@@std@@@std@@IEAA?AV?$_Tree_iterator@V?$_Tree_val@U?$_Tree_simple_types@U?$pair@$$CBV?$basic_string@DU?$char_traits@D@std@@V?$allocator@D@2@@std@@H@std@@@std@@@std@@@1@_NPEAU?$_Tree_node@U?$pair@$$CBV?$basic_string@DU?$char_traits@D@std@@V?$allocator@D@2@@std@@H@std@@PEAX@1@AEAU?$pair@$$CBV?$basic_string@DU?$char_traits@D@std@@V?$allocator@D@2@@std@@H@1@1@Z 000000018000aaf0 f i mex_opencv_2.4:MxArray.obj
 0001:00009dc0       ??$_Insert_nohint@AEAU?$pair@$$CBV?$basic_string@DU?$char_traits@D@std@@V?$allocator@D@2@@std@@H@std@@PEAU?$_Tree_node@U?$pair@$$CBV?$basic_string@DU?$char_traits@D@std@@V?$allocator@D@2@@std@@H@std@@PEAX@2@@?$_Tree@V?$_Tmap_traits@V?$basic_string@DU?$char_traits@D@std@@V?$allocator@D@2@@std@@HU?$less@V?$basic_string@DU?$char_traits@D@std@@V?$allocator@D@2@@std@@@2@V?$allocator@U?$pair@$$CBV?$basic_string@DU?$char_traits@D@std@@V?$allocator@D@2@@std@@H@std@@@2@$0A@@std@@@std@@IEAA?AU?$pair@V?$_Tree_iterator@V?$_Tree_val@U?$_Tree_simple_types@U?$pair@$$CBV?$basic_string@DU?$char_traits@D@std@@V?$allocator@D@2@@std@@H@std@@@std@@@std@@@std@@_N@1@_NAEAU?$pair@$$CBV?$basic_string@DU?$char_traits@D@std@@V?$allocator@D@2@@std@@H@1@PEAU?$_Tree_node@U?$pair@$$CBV?$basic_string@DU?$char_traits@D@std@@V?$allocator@D@2@@std@@H@std@@PEAX@1@@Z 000000018000adc0 f i mex_opencv_2.4:MxArray.obj
 0001:00009fd0       ??$_Insert_at@AEAU?$pair@$$CBHW4mxClassID@@@std@@PEAU?$_Tree_node@U?$pair@$$CBHW4mxClassID@@@std@@PEAX@2@@?$_Tree@V?$_Tmap_traits@HW4mxClassID@@U?$less@H@std@@V?$allocator@U?$pair@$$CBHW4mxClassID@@@std@@@3@$0A@@std@@@std@@IEAA?AV?$_Tree_iterator@V?$_Tree_val@U?$_Tree_simple_types@U?$pair@$$CBHW4mxClassID@@@std@@@std@@@std@@@1@_NPEAU?$_Tree_node@U?$pair@$$CBHW4mxClassID@@@std@@PEAX@1@AEAU?$pair@$$CBHW4mxClassID@@@1@1@Z 000000018000afd0 f i mex_opencv_2.4:MxArray.obj
 0001:00009fd0       ??$_Insert_at@AEAU?$pair@$$CBW4mxClassID@@H@std@@PEAU?$_Tree_node@U?$pair@$$CBW4mxClassID@@H@std@@PEAX@2@@?$_Tree@V?$_Tmap_traits@W4mxClassID@@HU?$less@W4mxClassID@@@std@@V?$allocator@U?$pair@$$CBW4mxClassID@@H@std@@@3@$0A@@std@@@std@@IEAA?AV?$_Tree_iterator@V?$_Tree_val@U?$_Tree_simple_types@U?$pair@$$CBW4mxClassID@@H@std@@@std@@@std@@@1@_NPEAU?$_Tree_node@U?$pair@$$CBW4mxClassID@@H@std@@PEAX@1@AEAU?$pair@$$CBW4mxClassID@@H@1@1@Z 000000018000afd0 f i mex_opencv_2.4:MxArray.obj
 0001:0000a280       ??$_Insert_nohint@AEAU?$pair@$$CBW4mxClassID@@H@std@@PEAU?$_Tree_node@U?$pair@$$CBW4mxClassID@@H@std@@PEAX@2@@?$_Tree@V?$_Tmap_traits@W4mxClassID@@HU?$less@W4mxClassID@@@std@@V?$allocator@U?$pair@$$CBW4mxClassID@@H@std@@@3@$0A@@std@@@std@@IEAA?AU?$pair@V?$_Tree_iterator@V?$_Tree_val@U?$_Tree_simple_types@U?$pair@$$CBW4mxClassID@@H@std@@@std@@@std@@@std@@_N@1@_NAEAU?$pair@$$CBW4mxClassID@@H@1@PEAU?$_Tree_node@U?$pair@$$CBW4mxClassID@@H@std@@PEAX@1@@Z 000000018000b280 f i mex_opencv_2.4:MxArray.obj
 0001:0000a280       ??$_Insert_nohint@AEAU?$pair@$$CBHW4mxClassID@@@std@@PEAU?$_Tree_node@U?$pair@$$CBHW4mxClassID@@@std@@PEAX@2@@?$_Tree@V?$_Tmap_traits@HW4mxClassID@@U?$less@H@std@@V?$allocator@U?$pair@$$CBHW4mxClassID@@@std@@@3@$0A@@std@@@std@@IEAA?AU?$pair@V?$_Tree_iterator@V?$_Tree_val@U?$_Tree_simple_types@U?$pair@$$CBHW4mxClassID@@@std@@@std@@@std@@@std@@_N@1@_NAEAU?$pair@$$CBHW4mxClassID@@@1@PEAU?$_Tree_node@U?$pair@$$CBHW4mxClassID@@@std@@PEAX@1@@Z 000000018000b280 f i mex_opencv_2.4:MxArray.obj
 0001:0000a3e0       ??$_Insert_at@AEAU?$pair@$$CBHV?$basic_string@DU?$char_traits@D@std@@V?$allocator@D@2@@std@@@std@@PEAU?$_Tree_node@U?$pair@$$CBHV?$basic_string@DU?$char_traits@D@std@@V?$allocator@D@2@@std@@@std@@PEAX@2@@?$_Tree@V?$_Tmap_traits@HV?$basic_string@DU?$char_traits@D@std@@V?$allocator@D@2@@std@@U?$less@H@2@V?$allocator@U?$pair@$$CBHV?$basic_string@DU?$char_traits@D@std@@V?$allocator@D@2@@std@@@std@@@2@$0A@@std@@@std@@IEAA?AV?$_Tree_iterator@V?$_Tree_val@U?$_Tree_simple_types@U?$pair@$$CBHV?$basic_string@DU?$char_traits@D@std@@V?$allocator@D@2@@std@@@std@@@std@@@std@@@1@_NPEAU?$_Tree_node@U?$pair@$$CBHV?$basic_string@DU?$char_traits@D@std@@V?$allocator@D@2@@std@@@std@@PEAX@1@AEAU?$pair@$$CBHV?$basic_string@DU?$char_traits@D@std@@V?$allocator@D@2@@std@@@1@1@Z 000000018000b3e0 f i mex_opencv_2.4:MxArray.obj
 0001:0000a6b0       ??$_Insert_nohint@AEAU?$pair@$$CBHV?$basic_string@DU?$char_traits@D@std@@V?$allocator@D@2@@std@@@std@@PEAU?$_Tree_node@U?$pair@$$CBHV?$basic_string@DU?$char_traits@D@std@@V?$allocator@D@2@@std@@@std@@PEAX@2@@?$_Tree@V?$_Tmap_traits@HV?$basic_string@DU?$char_traits@D@std@@V?$allocator@D@2@@std@@U?$less@H@2@V?$allocator@U?$pair@$$CBHV?$basic_string@DU?$char_traits@D@std@@V?$allocator@D@2@@std@@@std@@@2@$0A@@std@@@std@@IEAA?AU?$pair@V?$_Tree_iterator@V?$_Tree_val@U?$_Tree_simple_types@U?$pair@$$CBHV?$basic_string@DU?$char_traits@D@std@@V?$allocator@D@2@@std@@@std@@@std@@@std@@@std@@_N@1@_NAEAU?$pair@$$CBHV?$basic_string@DU?$char_traits@D@std@@V?$allocator@D@2@@std@@@1@PEAU?$_Tree_node@U?$pair@$$CBHV?$basic_string@DU?$char_traits@D@std@@V?$allocator@D@2@@std@@@std@@PEAX@1@@Z 000000018000b6b0 f i mex_opencv_2.4:MxArray.obj
 0001:0000a830       ??$_Buynode@AEAU?$pair@$$CBV?$basic_string@DU?$char_traits@D@std@@V?$allocator@D@2@@std@@H@std@@@?$_Tree_buy@U?$pair@$$CBV?$basic_string@DU?$char_traits@D@std@@V?$allocator@D@2@@std@@H@std@@V?$allocator@U?$pair@$$CBV?$basic_string@DU?$char_traits@D@std@@V?$allocator@D@2@@std@@H@std@@@2@@std@@QEAAPEAU?$_Tree_node@U?$pair@$$CBV?$basic_string@DU?$char_traits@D@std@@V?$allocator@D@2@@std@@H@std@@PEAX@1@AEAU?$pair@$$CBV?$basic_string@DU?$char_traits@D@std@@V?$allocator@D@2@@std@@H@1@@Z 000000018000b830 f i mex_opencv_2.4:MxArray.obj
 0001:0000a8b0       ??$_Buynode@AEAU?$pair@$$CBHW4mxClassID@@@std@@@?$_Tree_buy@U?$pair@$$CBHW4mxClassID@@@std@@V?$allocator@U?$pair@$$CBHW4mxClassID@@@std@@@2@@std@@QEAAPEAU?$_Tree_node@U?$pair@$$CBHW4mxClassID@@@std@@PEAX@1@AEAU?$pair@$$CBHW4mxClassID@@@1@@Z 000000018000b8b0 f i mex_opencv_2.4:MxArray.obj
 0001:0000a8b0       ??$_Buynode@AEAU?$pair@$$CBW4mxClassID@@H@std@@@?$_Tree_buy@U?$pair@$$CBW4mxClassID@@H@std@@V?$allocator@U?$pair@$$CBW4mxClassID@@H@std@@@2@@std@@QEAAPEAU?$_Tree_node@U?$pair@$$CBW4mxClassID@@H@std@@PEAX@1@AEAU?$pair@$$CBW4mxClassID@@H@1@@Z 000000018000b8b0 f i mex_opencv_2.4:MxArray.obj
 0001:0000a8e0       ??$_Buynode@AEAU?$pair@$$CBHV?$basic_string@DU?$char_traits@D@std@@V?$allocator@D@2@@std@@@std@@@?$_Tree_buy@U?$pair@$$CBHV?$basic_string@DU?$char_traits@D@std@@V?$allocator@D@2@@std@@@std@@V?$allocator@U?$pair@$$CBHV?$basic_string@DU?$char_traits@D@std@@V?$allocator@D@2@@std@@@std@@@2@@std@@QEAAPEAU?$_Tree_node@U?$pair@$$CBHV?$basic_string@DU?$char_traits@D@std@@V?$allocator@D@2@@std@@@std@@PEAX@1@AEAU?$pair@$$CBHV?$basic_string@DU?$char_traits@D@std@@V?$allocator@D@2@@std@@@1@@Z 000000018000b8e0 f i mex_opencv_2.4:MxArray.obj
 0001:0000a958       ?imbue@?$basic_streambuf@DU?$char_traits@D@std@@@std@@MEAAXAEBVlocale@2@@Z 000000018000b958 f   msvcprt:MSVCP120.dll
 0001:0000a95e       ?sync@?$basic_streambuf@DU?$char_traits@D@std@@@std@@MEAAHXZ 000000018000b95e f   msvcprt:MSVCP120.dll
 0001:0000a964       ?setbuf@?$basic_streambuf@DU?$char_traits@D@std@@@std@@MEAAPEAV12@PEAD_J@Z 000000018000b964 f   msvcprt:MSVCP120.dll
 0001:0000a96a       ?xsputn@?$basic_streambuf@DU?$char_traits@D@std@@@std@@MEAA_JPEBD_J@Z 000000018000b96a f   msvcprt:MSVCP120.dll
 0001:0000a970       ?xsgetn@?$basic_streambuf@DU?$char_traits@D@std@@@std@@MEAA_JPEAD_J@Z 000000018000b970 f   msvcprt:MSVCP120.dll
 0001:0000a976       ?uflow@?$basic_streambuf@DU?$char_traits@D@std@@@std@@MEAAHXZ 000000018000b976 f   msvcprt:MSVCP120.dll
 0001:0000a97c       ?showmanyc@?$basic_streambuf@DU?$char_traits@D@std@@@std@@MEAA_JXZ 000000018000b97c f   msvcprt:MSVCP120.dll
 0001:0000a982       ?_Unlock@?$basic_streambuf@DU?$char_traits@D@std@@@std@@UEAAXXZ 000000018000b982 f   msvcprt:MSVCP120.dll
 0001:0000a988       ?_Lock@?$basic_streambuf@DU?$char_traits@D@std@@@std@@UEAAXXZ 000000018000b988 f   msvcprt:MSVCP120.dll
 0001:0000a9a0       __security_check_cookie    000000018000b9a0 f   MSVCRT:amdsecgs.obj
 0001:0000a9c0       __atonexitinit             000000018000b9c0 f   MSVCRT:atonexit.obj
 0001:0000aa10       _onexit                    000000018000ba10 f   MSVCRT:atonexit.obj
 0001:0000aac0       atexit                     000000018000bac0 f   MSVCRT:atonexit.obj
 0001:0000aad8       _purecall                  000000018000bad8 f   MSVCRT:MSVCR120.dll
 0001:0000aade       ??3@YAXPEAX@Z              000000018000bade f   MSVCRT:MSVCR120.dll
 0001:0000aae4       ??_Etype_info@@UEAAPEAXI@Z 000000018000bae4 f i MSVCRT:ti_inst.obj
 0001:0000ab4e       ?what@exception@std@@UEBAPEBDXZ 000000018000bb4e f   MSVCRT:MSVCR120.dll
 0001:0000ab54       ??0exception@std@@QEAA@AEBV01@@Z 000000018000bb54 f   MSVCRT:MSVCR120.dll
 0001:0000ab5a       ?terminate@@YAXXZ          000000018000bb5a f   MSVCRT:MSVCR120.dll
 0001:0000abc0       _CRT_INIT                  000000018000bbc0 f   MSVCRT:crtdll.obj
 0001:0000ae0c       _DllMainCRTStartup         000000018000be0c f   MSVCRT:crtdll.obj
 0001:0000af84       __raise_securityfailure    000000018000bf84 f   MSVCRT:gs_report.obj
 0001:0000afd0       __report_gsfailure         000000018000bfd0 f   MSVCRT:gs_report.obj
 0001:0000b0a2       _lock                      000000018000c0a2 f   MSVCRT:MSVCR120.dll
 0001:0000b0a8       _unlock                    000000018000c0a8 f   MSVCRT:MSVCR120.dll
 0001:0000b0ae       __dllonexit                000000018000c0ae f   MSVCRT:MSVCR120.dll
 0001:0000b0b4       __C_specific_handler       000000018000c0b4 f   MSVCRT:MSVCR120.dll
 0001:0000b0bc       ??_M@YAXPEAX_KHP6AX0@Z@Z   000000018000c0bc f   MSVCRT:ehvecdtr.obj
 0001:0000b11c       ?__ArrayUnwind@@YAXPEAX_KHP6AX0@Z@Z 000000018000c11c f   MSVCRT:ehvecdtr.obj
 0001:0000b166       __CppXcptFilter            000000018000c166 f   MSVCRT:MSVCR120.dll
 0001:0000b16c       _amsg_exit                 000000018000c16c f   MSVCRT:MSVCR120.dll
 0001:0000b180       _FindPESection             000000018000c180 f   MSVCRT:pesect.obj
 0001:0000b1d0       _IsNonwritableInCurrentImage 000000018000c1d0 f   MSVCRT:pesect.obj
 0001:0000b220       _ValidateImageBase         000000018000c220 f   MSVCRT:pesect.obj
 0001:0000b250       __security_init_cookie     000000018000c250 f   MSVCRT:gs_support.obj
 0001:0000b2fc       DllMain                    000000018000c2fc f   MSVCRT:dllmain.obj
 0001:0000b320       _RTC_Initialize            000000018000c320 f   MSVCRT:initsect.obj
 0001:0000b358       _RTC_Terminate             000000018000c358 f   MSVCRT:initsect.obj
 0001:0000b390       _initterm                  000000018000c390 f   MSVCRT:MSVCR120.dll
 0001:0000b396       _initterm_e                000000018000c396 f   MSVCRT:MSVCR120.dll
 0001:0000b39c       __clean_type_info_names    000000018000c39c f   MSVCRT:tncleanup.obj
 0001:0000b3a8       __crt_debugger_hook        000000018000c3a8 f   MSVCRT:MSVCR120.dll
 0001:0000b3ae       __crtUnhandledException    000000018000c3ae f   MSVCRT:MSVCR120.dll
 0001:0000b3b4       __crtTerminateProcess      000000018000c3b4 f   MSVCRT:MSVCR120.dll
 0001:0000b3ba       __crtCapturePreviousContext 000000018000c3ba f   MSVCRT:MSVCR120.dll
 0001:0000b3c0       ??1type_info@@UEAA@XZ      000000018000c3c0 f   MSVCRT:MSVCR120.dll
 0001:0000b3c0       ?_type_info_dtor_internal_method@type_info@@QEAAXXZ 000000018000c3c0 f   MSVCRT:MSVCR120.dll
 0001:0000b3c6       __clean_type_info_names_internal 000000018000c3c6 f   MSVCRT:MSVCR120.dll
 0001:0000b3cc       IsProcessorFeaturePresent  000000018000c3cc f   kernel32:KERNEL32.dll
 0001:0000b3d2       _CxxThrowException         000000018000c3d2 f   MSVCRT:MSVCR120.dll
 0001:0000b3d8       __CxxFrameHandler3         000000018000c3d8 f   MSVCRT:MSVCR120.dll
 0001:0000b3e0       __GSHandlerCheck           000000018000c3e0 f   MSVCRT:gshandler.obj
 0001:0000b400       __GSHandlerCheckCommon     000000018000c400 f   MSVCRT:gshandler.obj
 0001:0000b464       __GSHandlerCheck_EH        000000018000c464 f   MSVCRT:gshandlereh.obj
 0001:0000b4f4       exp                        000000018000c4f4 f   MSVCRT:MSVCR120.dll
 0001:0000b4fa       memcmp                     000000018000c4fa f   MSVCRT:MSVCR120.dll
 0001:0000b500       memcpy                     000000018000c500 f   MSVCRT:MSVCR120.dll
 0001:0000b506       memset                     000000018000c506 f   MSVCRT:MSVCR120.dll
 0001:0000b50c       sqrt                       000000018000c50c f   MSVCRT:MSVCR120.dll
 0002:00000000       __imp_DisableThreadLibraryCalls 000000018000e000     kernel32:KERNEL32.dll
 0002:00000008       __imp_DecodePointer        000000018000e008     kernel32:KERNEL32.dll
 0002:00000010       __imp_IsDebuggerPresent    000000018000e010     kernel32:KERNEL32.dll
 0002:00000018       __imp_IsProcessorFeaturePresent 000000018000e018     kernel32:KERNEL32.dll
 0002:00000020       __imp_QueryPerformanceCounter 000000018000e020     kernel32:KERNEL32.dll
 0002:00000028       __imp_GetCurrentProcessId  000000018000e028     kernel32:KERNEL32.dll
 0002:00000030       __imp_GetCurrentThreadId   000000018000e030     kernel32:KERNEL32.dll
 0002:00000038       __imp_EncodePointer        000000018000e038     kernel32:KERNEL32.dll
 0002:00000040       __imp_GetSystemTimeAsFileTime 000000018000e040     kernel32:KERNEL32.dll
 0002:00000048       \177KERNEL32_NULL_THUNK_DATA 000000018000e048     kernel32:KERNEL32.dll
 0002:00000050       __imp__Thrd_join           000000018000e050     msvcprt:MSVCP120.dll
 0002:00000058       __imp__Thrd_current        000000018000e058     msvcprt:MSVCP120.dll
 0002:00000060       __imp_??0_Pad@std@@QEAA@XZ 000000018000e060     msvcprt:MSVCP120.dll
 0002:00000068       __imp_??1_Pad@std@@QEAA@XZ 000000018000e068     msvcprt:MSVCP120.dll
 0002:00000070       __imp_?_Launch@_Pad@std@@QEAAXPEAU_Thrd_imp_t@@@Z 000000018000e070     msvcprt:MSVCP120.dll
 0002:00000078       __imp_?_Winerror_map@std@@YAPEBDH@Z 000000018000e078     msvcprt:MSVCP120.dll
 0002:00000080       __imp_?_Syserror_map@std@@YAPEBDH@Z 000000018000e080     msvcprt:MSVCP120.dll
 0002:00000088       __imp_?_Xbad_alloc@std@@YAXXZ 000000018000e088     msvcprt:MSVCP120.dll
 0002:00000090       __imp_?_Xout_of_range@std@@YAXPEBD@Z 000000018000e090     msvcprt:MSVCP120.dll
 0002:00000098       __imp_?_Xlength_error@std@@YAXPEBD@Z 000000018000e098     msvcprt:MSVCP120.dll
 0002:000000a0       __imp_?_BADOFF@std@@3_JB   000000018000e0a0     msvcprt:MSVCP120.dll
 0002:000000a8       __imp_?uncaught_exception@std@@YA_NXZ 000000018000e0a8     msvcprt:MSVCP120.dll
 0002:000000b0       __imp_?sputn@?$basic_streambuf@DU?$char_traits@D@std@@@std@@QEAA_JPEBD_J@Z 000000018000e0b0     msvcprt:MSVCP120.dll
 0002:000000b8       __imp_?sputc@?$basic_streambuf@DU?$char_traits@D@std@@@std@@QEAAHD@Z 000000018000e0b8     msvcprt:MSVCP120.dll
 0002:000000c0       __imp_?flush@?$basic_ostream@DU?$char_traits@D@std@@@std@@QEAAAEAV12@XZ 000000018000e0c0     msvcprt:MSVCP120.dll
 0002:000000c8       __imp_?_Osfx@?$basic_ostream@DU?$char_traits@D@std@@@std@@QEAAXXZ 000000018000e0c8     msvcprt:MSVCP120.dll
 0002:000000d0       __imp_??0?$basic_streambuf@DU?$char_traits@D@std@@@std@@IEAA@XZ 000000018000e0d0     msvcprt:MSVCP120.dll
 0002:000000d8       __imp_??0?$basic_ios@DU?$char_traits@D@std@@@std@@IEAA@XZ 000000018000e0d8     msvcprt:MSVCP120.dll
 0002:000000e0       __imp_?_Pninc@?$basic_streambuf@DU?$char_traits@D@std@@@std@@IEAAPEADXZ 000000018000e0e0     msvcprt:MSVCP120.dll
 0002:000000e8       __imp_??6?$basic_ostream@DU?$char_traits@D@std@@@std@@QEAAAEAV01@H@Z 000000018000e0e8     msvcprt:MSVCP120.dll
 0002:000000f0       __imp_??1?$basic_ostream@DU?$char_traits@D@std@@@std@@UEAA@XZ 000000018000e0f0     msvcprt:MSVCP120.dll
 0002:000000f8       __imp_??0?$basic_ostream@DU?$char_traits@D@std@@@std@@QEAA@PEAV?$basic_streambuf@DU?$char_traits@D@std@@@1@_N@Z 000000018000e0f8     msvcprt:MSVCP120.dll
 0002:00000100       __imp_?setstate@?$basic_ios@DU?$char_traits@D@std@@@std@@QEAAXH_N@Z 000000018000e100     msvcprt:MSVCP120.dll
 0002:00000108       __imp_??1?$basic_ios@DU?$char_traits@D@std@@@std@@UEAA@XZ 000000018000e108     msvcprt:MSVCP120.dll
 0002:00000110       __imp_?imbue@?$basic_streambuf@DU?$char_traits@D@std@@@std@@MEAAXAEBVlocale@2@@Z 000000018000e110     msvcprt:MSVCP120.dll
 0002:00000118       __imp_?sync@?$basic_streambuf@DU?$char_traits@D@std@@@std@@MEAAHXZ 000000018000e118     msvcprt:MSVCP120.dll
 0002:00000120       __imp_?setbuf@?$basic_streambuf@DU?$char_traits@D@std@@@std@@MEAAPEAV12@PEAD_J@Z 000000018000e120     msvcprt:MSVCP120.dll
 0002:00000128       __imp_?xsputn@?$basic_streambuf@DU?$char_traits@D@std@@@std@@MEAA_JPEBD_J@Z 000000018000e128     msvcprt:MSVCP120.dll
 0002:00000130       __imp_?xsgetn@?$basic_streambuf@DU?$char_traits@D@std@@@std@@MEAA_JPEAD_J@Z 000000018000e130     msvcprt:MSVCP120.dll
 0002:00000138       __imp_?uflow@?$basic_streambuf@DU?$char_traits@D@std@@@std@@MEAAHXZ 000000018000e138     msvcprt:MSVCP120.dll
 0002:00000140       __imp_?showmanyc@?$basic_streambuf@DU?$char_traits@D@std@@@std@@MEAA_JXZ 000000018000e140     msvcprt:MSVCP120.dll
 0002:00000148       __imp_?_Unlock@?$basic_streambuf@DU?$char_traits@D@std@@@std@@UEAAXXZ 000000018000e148     msvcprt:MSVCP120.dll
 0002:00000150       __imp_?_Lock@?$basic_streambuf@DU?$char_traits@D@std@@@std@@UEAAXXZ 000000018000e150     msvcprt:MSVCP120.dll
 0002:00000158       __imp_??1?$basic_streambuf@DU?$char_traits@D@std@@@std@@UEAA@XZ 000000018000e158     msvcprt:MSVCP120.dll
 0002:00000160       __imp__Thrd_equal          000000018000e160     msvcprt:MSVCP120.dll
 0002:00000168       __imp_?_Throw_Cpp_error@std@@YAXH@Z 000000018000e168     msvcprt:MSVCP120.dll
 0002:00000170       __imp_?_Release@_Pad@std@@QEAAXXZ 000000018000e170     msvcprt:MSVCP120.dll
 0002:00000178       \177MSVCP120_NULL_THUNK_DATA 000000018000e178     msvcprt:MSVCP120.dll
 0002:00000180       __imp_?_type_info_dtor_internal_method@type_info@@QEAAXXZ 000000018000e180     MSVCRT:MSVCR120.dll
 0002:00000188       __imp___clean_type_info_names_internal 000000018000e188     MSVCRT:MSVCR120.dll
 0002:00000190       __imp__CxxThrowException   000000018000e190     MSVCRT:MSVCR120.dll
 0002:00000198       __imp___CxxFrameHandler3   000000018000e198     MSVCRT:MSVCR120.dll
 0002:000001a0       __imp_exp                  000000018000e1a0     MSVCRT:MSVCR120.dll
 0002:000001a8       __imp_memcmp               000000018000e1a8     MSVCRT:MSVCR120.dll
 0002:000001b0       __imp_memcpy               000000018000e1b0     MSVCRT:MSVCR120.dll
 0002:000001b8       __imp_memset               000000018000e1b8     MSVCRT:MSVCR120.dll
 0002:000001c0       __imp_??0exception@std@@QEAA@AEBQEBDH@Z 000000018000e1c0     MSVCRT:MSVCR120.dll
 0002:000001c8       __imp_memmove              000000018000e1c8     MSVCRT:MSVCR120.dll
 0002:000001d0       __imp__purecall            000000018000e1d0     MSVCRT:MSVCR120.dll
 0002:000001d8       __imp_??3@YAXPEAX@Z        000000018000e1d8     MSVCRT:MSVCR120.dll
 0002:000001e0       __imp_??2@YAPEAX_K@Z       000000018000e1e0     MSVCRT:MSVCR120.dll
 0002:000001e8       __imp__wassert             000000018000e1e8     MSVCRT:MSVCR120.dll
 0002:000001f0       __imp_?what@exception@std@@UEBAPEBDXZ 000000018000e1f0     MSVCRT:MSVCR120.dll
 0002:000001f8       __imp_??1exception@std@@UEAA@XZ 000000018000e1f8     MSVCRT:MSVCR120.dll
 0002:00000200       __imp_sqrt                 000000018000e200     MSVCRT:MSVCR120.dll
 0002:00000208       __imp_??0exception@std@@QEAA@AEBV01@@Z 000000018000e208     MSVCRT:MSVCR120.dll
 0002:00000210       __imp_free                 000000018000e210     MSVCRT:MSVCR120.dll
 0002:00000218       __imp_malloc               000000018000e218     MSVCRT:MSVCR120.dll
 0002:00000220       __imp_?terminate@@YAXXZ    000000018000e220     MSVCRT:MSVCR120.dll
 0002:00000228       __imp_?_GetConcurrency@details@Concurrency@@YAIXZ 000000018000e228     MSVCRT:MSVCR120.dll
 0002:00000230       __imp_clock                000000018000e230     MSVCRT:MSVCR120.dll
 0002:00000238       __imp__lock                000000018000e238     MSVCRT:MSVCR120.dll
 0002:00000240       __imp__unlock              000000018000e240     MSVCRT:MSVCR120.dll
 0002:00000248       __imp__calloc_crt          000000018000e248     MSVCRT:MSVCR120.dll
 0002:00000250       __imp___dllonexit          000000018000e250     MSVCRT:MSVCR120.dll
 0002:00000258       __imp___C_specific_handler 000000018000e258     MSVCRT:MSVCR120.dll
 0002:00000260       __imp__onexit              000000018000e260     MSVCRT:MSVCR120.dll
 0002:00000268       __imp___CppXcptFilter      000000018000e268     MSVCRT:MSVCR120.dll
 0002:00000270       __imp__amsg_exit           000000018000e270     MSVCRT:MSVCR120.dll
 0002:00000278       __imp__malloc_crt          000000018000e278     MSVCRT:MSVCR120.dll
 0002:00000280       __imp__initterm            000000018000e280     MSVCRT:MSVCR120.dll
 0002:00000288       __imp__initterm_e          000000018000e288     MSVCRT:MSVCR120.dll
 0002:00000290       __imp___crt_debugger_hook  000000018000e290     MSVCRT:MSVCR120.dll
 0002:00000298       __imp___crtUnhandledException 000000018000e298     MSVCRT:MSVCR120.dll
 0002:000002a0       __imp___crtTerminateProcess 000000018000e2a0     MSVCRT:MSVCR120.dll
 0002:000002a8       __imp___crtCapturePreviousContext 000000018000e2a8     MSVCRT:MSVCR120.dll
 0002:000002b0       \177MSVCR120_NULL_THUNK_DATA 000000018000e2b0     MSVCRT:MSVCR120.dll
 0002:000002b8       __imp_mexWarnMsgTxt        000000018000e2b8     libmex:libmex.dll
 0002:000002c0       __imp_mexErrMsgIdAndTxt    000000018000e2c0     libmex:libmex.dll
 0002:000002c8       __imp_mexErrMsgTxt         000000018000e2c8     libmex:libmex.dll
 0002:000002d0       \177libmex_NULL_THUNK_DATA 000000018000e2d0     libmex:libmex.dll
 0002:000002d8       __imp_mxIsChar             000000018000e2d8     libmx:libmx.dll
 0002:000002e0       __imp_mxArrayToString      000000018000e2e0     libmx:libmx.dll
 0002:000002e8       __imp_mxFree               000000018000e2e8     libmx:libmx.dll
 0002:000002f0       __imp_mxIsCell             000000018000e2f0     libmx:libmx.dll
 0002:000002f8       __imp_mxGetCell_730        000000018000e2f8     libmx:libmx.dll
 0002:00000300       __imp_mxGetLogicals        000000018000e300     libmx:libmx.dll
 0002:00000308       __imp_mxGetData            000000018000e308     libmx:libmx.dll
 0002:00000310       __imp_mxGetN               000000018000e310     libmx:libmx.dll
 0002:00000318       __imp_mxGetClassID         000000018000e318     libmx:libmx.dll
 0002:00000320       __imp_mxGetNumberOfElements 000000018000e320     libmx:libmx.dll
 0002:00000328       __imp_mxGetPr              000000018000e328     libmx:libmx.dll
 0002:00000330       __imp_mxGetM               000000018000e330     libmx:libmx.dll
 0002:00000338       __imp_mxGetChars           000000018000e338     libmx:libmx.dll
 0002:00000340       __imp_mxIsNumeric          000000018000e340     libmx:libmx.dll
 0002:00000348       __imp_mxCreateNumericArray_730 000000018000e348     libmx:libmx.dll
 0002:00000350       __imp_mxIsInt32            000000018000e350     libmx:libmx.dll
 0002:00000358       \177libmx_NULL_THUNK_DATA  000000018000e358     libmx:libmx.dll
 0002:00000360       __xc_a                     000000018000e360     MSVCRT:cinitexe.obj
 0002:000003b0       __xc_z                     000000018000e3b0     MSVCRT:cinitexe.obj
 0002:000003b8       __xi_a                     000000018000e3b8     MSVCRT:cinitexe.obj
 0002:000003d0       __xi_z                     000000018000e3d0     MSVCRT:cinitexe.obj
 0002:00000420       ??_7type_info@@6B@         000000018000e420     MSVCRT:ti_inst.obj
 0002:00000428       _pRawDllMain               000000018000e428     MSVCRT:crtdll.obj
 0002:00000428       _pDefaultRawDllMain        000000018000e428     MSVCRT:crtdll.obj
 0002:00000440       ??_C@_07DCLBNMLN@generic?$AA@ 000000018000e440     diversity.obj
 0002:00000448       ??_C@_0O@BFJCFAAK@unknown?5error?$AA@ 000000018000e448     diversity.obj
 0002:00000458       ??_C@_08LLGCOLLL@iostream?$AA@ 000000018000e458     diversity.obj
 0002:00000468       ??_C@_0BG@PADBLCHM@iostream?5stream?5error?$AA@ 000000018000e468     diversity.obj
 0002:00000480       ??_C@_06FHFOAHML@system?$AA@ 000000018000e480     diversity.obj
 0002:00000488       ??_C@_0CL@JHPPCNOO@Assertion?3?5?$CInnfN?5?9?5windowN?5?$CL?51?$CJ?5@ 000000018000e488     diversity.obj
 0002:000004b8       ??_C@_0CL@HPKHPHKL@Assertion?3?5?$CInnfM?5?9?5windowM?5?$CL?51?$CJ?5@ 000000018000e4b8     diversity.obj
 0002:000004e8       ??_C@_0DP@DDPFKCPF@Assertion?3?5inputsElementCount?5?$DO?$DN@ 000000018000e4e8     diversity.obj
 0002:00000528       ??_C@_0CB@JMAIPOIH@missing?5argument?3?5weights?5vector@ 000000018000e528     diversity.obj
 0002:00000550       ??_C@_0IA@HGBMEOEJ@weights?5vector?5is?5too?5short?4?5Its@ 000000018000e550     diversity.obj
 0002:000005d0       ??_C@_0BA@JFNIOLAK@string?5too?5long?$AA@ 000000018000e5d0     diversity.obj
 0002:000005e0       ??_C@_0BI@CFPLBAOH@invalid?5string?5position?$AA@ 000000018000e5e0     diversity.obj
 0002:000005f8       ??_C@_0BD@OLBABOEK@vector?$DMT?$DO?5too?5long?$AA@ 000000018000e5f8     diversity.obj
 0002:00000610       ??_C@_0BA@CPPJKABL@mexopencv?3error?$AA@ 000000018000e610     diversity.obj
 0002:00000620       ??_C@_0BO@HCEAMNFI@Cannot?5convert?5to?5std?3?3vector?$AA@ 000000018000e620     diversity.obj
 0002:00000640       ??_C@_0BI@IFMOMPED@Accessing?5invalid?5range?$AA@ 000000018000e640     diversity.obj
 0002:00000658       ??_C@_0BJ@PKHEIMM@MxArray?5is?5not?5primitive?$AA@ 000000018000e658     diversity.obj
 0002:00000680       ??_7_Generic_error_category@std@@6B@ 000000018000e680     diversity.obj
 0002:000006b8       ??_7MxArray@@6B@           000000018000e6b8     diversity.obj
 0002:000006c8       ??_7_System_error_category@std@@6B@ 000000018000e6c8     diversity.obj
 0002:00000700       ??_7_Iostream_error_category@std@@6B@ 000000018000e700     diversity.obj
 0002:00000738       ??_7error_category@std@@6B@ 000000018000e738     diversity.obj
 0002:00000768       ?WeightedDiversityCount@DiversityTypes@@2PEBDEB 000000018000e768     main.obj
 0002:00000770       ?DeformableDiversity@DiversityTypes@@2PEBDEB 000000018000e770     main.obj
 0002:00000778       ?DiversityCount@DiversityTypes@@2PEBDEB 000000018000e778     main.obj
 0002:00000780       ??_8?$basic_ostringstream@DU?$char_traits@D@std@@V?$allocator@D@2@@std@@7B@ 000000018000e780     main.obj
 0002:00000788       ??_C@_00CNPNBAHC@?$AA@     000000018000e788     main.obj
 0002:00000790       ??_C@_0CC@HOMDNNHD@Assertion?3?5mxObj?4isInt32?$CI?$CJ?5faile@ 000000018000e790     main.obj
 0002:000007b8       ??_C@_0P@DNIPFAMC@DiversityCount?$AA@ 000000018000e7b8     main.obj
 0002:000007c8       ??_C@_0BH@DMNHDANF@weightedDiversityCount?$AA@ 000000018000e7c8     main.obj
 0002:000007e0       ??_C@_0BE@NACKHEIG@DeformableDiversity?$AA@ 000000018000e7e0     main.obj
 0002:000007f4       ??_C@_01EEMJAFIK@?6?$AA@   000000018000e7f4     main.obj
 0002:000007f8       ??_C@_0DF@NBDPNJHA@?0?5nnfMat?0?5windowM?0?5windowN?0?5xyPo@ 000000018000e7f8     main.obj
 0002:00000830       ??_C@_01GEODFPGF@?8?$AA@   000000018000e830     main.obj
 0002:00000838       ??_C@_0CE@BMCCIOBJ@?0?5nnfMat?0?5windowM?0?5windowN?0?5weig@ 000000018000e838     main.obj
 0002:00000860       ??_C@_0FL@LCHPENBL@?0?5nnfMat?0?5windowM?0?5windowN?0?5diff@ 000000018000e860     main.obj
 0002:000008c0       ??_C@_0BC@DEDOGNIN@Expected?5inputs?3?5?$AA@ 000000018000e8c0     main.obj
 0002:000008e0       ??_C@_0EA@FBEFOGGK@Assertion?3?5inputsElementCount?5?$DO?$DN@ 000000018000e8e0     main.obj
 0002:00000920       ??_C@_0CK@KDKFNFAJ@Assertion?3?5outputElementCount?5?$DN?$DN@ 000000018000e920     main.obj
 0002:00000950       ??_C@_0CB@LDDDCECJ@expected?5outpus?3?5?$CIdiversity?5map?$CJ@ 000000018000e950     main.obj
 0002:00000978       ??_C@_0CF@ONEKHAAO@First?5parameter?5should?5be?5a?5stri@ 000000018000e978     main.obj
 0002:000009a0       ??_C@_01KMDKNFGN@?1?$AA@   000000018000e9a0     main.obj
 0002:000009a8       ??_C@_0DJ@FBCPLDKN@first?5parameter?5should?5be?5one?5of@ 000000018000e9a8     main.obj
 0002:000009e8       ??_C@_0CG@NJECNNAH@An?5exception?5occurred?4?5Exception@ 000000018000e9e8     main.obj
 0002:00000a10       ??_C@_1OA@NGNBCLMA@?$AAc?$AA?3?$AA?2?$AAu?$AAs?$AAe?$AAr?$AAs?$AA?2?$AAt?$AAi?$AAt?$AAa?$AAm?$AAa?$AAr?$AA?2?$AAd?$AAo?$AAc?$AAu?$AAm?$AAe?$AAn?$AAt?$AAs?$AA?2?$AAv?$AAi?$AAs?$AAu?$AAa@ 000000018000ea10     main.obj
 0002:00000af0       ??_C@_1BGE@MDFDAGNB@?$AA?$CI?$AAd?$AAa?$AAt?$AAa?$AAP?$AAt?$AAr?$AA?5?$AA?$DN?$AA?$DN?$AA?5?$AA0?$AA?$CJ?$AA?5?$AA?$HM?$AA?$HM?$AA?5?$AA?$CI?$AA?5?$AAn?$AAb?$AAR?$AAo?$AAw?$AAs?$AA?5?$AA?$DO?$AA?$DN?$AA?5?$AA0?$AA?5@ 000000018000eaf0     main.obj
 0002:00000c60       ??_7?$basic_ostringstream@DU?$char_traits@D@std@@V?$allocator@D@2@@std@@6B@ 000000018000ec60     main.obj
 0002:00000c70       ??_7?$basic_stringbuf@DU?$char_traits@D@std@@V?$allocator@D@2@@std@@6B@ 000000018000ec70     main.obj
 0002:00000ce8       ??_C@_0P@GHFPNOJB@bad?5allocation?$AA@ 000000018000ece8     deformableDiversity.obj
 0002:00000cf8       ??_C@_0DD@BHLLANOM@Assertion?3?5maxElement?5?$DM?$DN?5xyPosit@ 000000018000ecf8     deformableDiversity.obj
 0002:00000d30       ??_C@_0FL@NAHPHFM@the?5amount?5of?5xy?5positions?5must?5@ 000000018000ed30     deformableDiversity.obj
 0002:00000d90       ??_C@_0EF@FCAGKMGM@Assertion?3?5xyPositions?4cols?$CI?$CJ?5?$DN?$DN@ 000000018000ed90     deformableDiversity.obj
 0002:00000de0       ??_C@_0KL@MONNJLOP@argument?5xyPositions?5must?5be?5a?5m@ 000000018000ede0     deformableDiversity.obj
 0002:00000e90       ??_C@_0DP@PCCPGICO@Assertion?3?5inputsElementCount?5?$DO?$DN@ 000000018000ee90     deformableDiversity.obj
 0002:00000ed0       ??_C@_0CF@CAKNCNJG@missing?5argument?3?5xy?5positins?5ma@ 000000018000eed0     deformableDiversity.obj
 0002:00000f00       ??_C@_1NM@DLAENEJJ@?$AAc?$AA?3?$AA?2?$AAu?$AAs?$AAe?$AAr?$AAs?$AA?2?$AAt?$AAi?$AAt?$AAa?$AAm?$AAa?$AAr?$AA?2?$AAd?$AAo?$AAc?$AAu?$AAm?$AAe?$AAn?$AAt?$AAs?$AA?2?$AAv?$AAi?$AAs?$AAu?$AAa@ 000000018000ef00     deformableDiversity.obj
 0002:00000fe0       ??_C@_1BEO@BFPLGJIO@?$AA?$CI?$AAi?$AA?$DO?$AA?$DN?$AA0?$AA?$CJ?$AA?5?$AA?$CG?$AA?$CG?$AA?5?$AA?$CI?$AA?5?$AA?$CI?$AA?$CI?$AAB?$AAl?$AAo?$AAc?$AAk?$AAR?$AAo?$AAw?$AAs?$AA?$DN?$AA?$DN?$AA1?$AA?$CJ?$AA?5?$AA?$CG?$AA?$CG?$AA?5?$AA?$CI@ 000000018000efe0     deformableDiversity.obj
 0002:00001130       ??_C@_0BM@NMJKDPPO@invalid?5vector?$DMT?$DO?5subscript?$AA@ 000000018000f130     deformableDiversity.obj
 0002:00001150       ??_C@_1OE@COBOCBIA@?$AAc?$AA?3?$AA?2?$AAu?$AAs?$AAe?$AAr?$AAs?$AA?2?$AAt?$AAi?$AAt?$AAa?$AAm?$AAa?$AAr?$AA?2?$AAd?$AAo?$AAc?$AAu?$AAm?$AAe?$AAn?$AAt?$AAs?$AA?2?$AAv?$AAi?$AAs?$AAu?$AAa@ 000000018000f150     deformableDiversity.obj
 0002:00001240       ??_C@_1OM@PNEMALLH@?$AAc?$AA?3?$AA?2?$AAu?$AAs?$AAe?$AAr?$AAs?$AA?2?$AAt?$AAi?$AAt?$AAa?$AAm?$AAa?$AAr?$AA?2?$AAd?$AAo?$AAc?$AAu?$AAm?$AAe?$AAn?$AAt?$AAs?$AA?2?$AAv?$AAi?$AAs?$AAu?$AAa@ 000000018000f240     deformableDiversity.obj
 0002:00001330       ??_C@_1HC@DONMBPHG@?$AAa?$AAL?$AAh?$AAs?$AA?4?$AAr?$AAo?$AAw?$AAs?$AA?$CI?$AA?$CJ?$AA?5?$AA?$DN?$AA?$DN?$AA?5?$AAa?$AAR?$AAh?$AAs?$AA?4?$AAr?$AAo?$AAw?$AAs?$AA?$CI?$AA?$CJ?$AA?5?$AA?$CG?$AA?$CG?$AA?5?$AAa?$AAL@ 000000018000f330     deformableDiversity.obj
 0002:000013b0       ??_C@_1PC@EKCHDFHP@?$AAc?$AA?3?$AA?2?$AAu?$AAs?$AAe?$AAr?$AAs?$AA?2?$AAt?$AAi?$AAt?$AAa?$AAm?$AAa?$AAr?$AA?2?$AAd?$AAo?$AAc?$AAu?$AAm?$AAe?$AAn?$AAt?$AAs?$AA?2?$AAv?$AAi?$AAs?$AAu?$AAa@ 000000018000f3b0     deformableDiversity.obj
 0002:000014b0       ??_C@_1IG@MLOINHIG@?$AAm?$AA_?$AAm?$AAa?$AAt?$AAr?$AAi?$AAx?$AA?4?$AAr?$AAo?$AAw?$AAs?$AA?$CI?$AA?$CJ?$AA?5?$AA?$DN?$AA?$DN?$AA?5?$AAo?$AAt?$AAh?$AAe?$AAr?$AA?4?$AAr?$AAo?$AAw?$AAs?$AA?$CI?$AA?$CJ?$AA?5@ 000000018000f4b0     deformableDiversity.obj
 0002:00001540       ??_C@_1NO@BBDEMJIC@?$AAc?$AA?3?$AA?2?$AAu?$AAs?$AAe?$AAr?$AAs?$AA?2?$AAt?$AAi?$AAt?$AAa?$AAm?$AAa?$AAr?$AA?2?$AAd?$AAo?$AAc?$AAu?$AAm?$AAe?$AAn?$AAt?$AAs?$AA?2?$AAv?$AAi?$AAs?$AAu?$AAa@ 000000018000f540     deformableDiversity.obj
 0002:00001620       ??_C@_1GC@PBCDNLIH@?$AAr?$AAo?$AAw?$AAs?$AA?$CI?$AA?$CJ?$AA?5?$AA?$DN?$AA?$DN?$AA?5?$AAo?$AAt?$AAh?$AAe?$AAr?$AA?4?$AAr?$AAo?$AAw?$AAs?$AA?$CI?$AA?$CJ?$AA?5?$AA?$CG?$AA?$CG?$AA?5?$AAc?$AAo?$AAl?$AAs?$AA?$CI?$AA?$CJ@ 000000018000f620     deformableDiversity.obj
 0002:00001690       ??_C@_1PA@BCEHOJJ@?$AAc?$AA?3?$AA?2?$AAu?$AAs?$AAe?$AAr?$AAs?$AA?2?$AAt?$AAi?$AAt?$AAa?$AAm?$AAa?$AAr?$AA?2?$AAd?$AAo?$AAc?$AAu?$AAm?$AAe?$AAn?$AAt?$AAs?$AA?2?$AAv?$AAi?$AAs?$AAu?$AAa@ 000000018000f690     deformableDiversity.obj
 0002:00001780       ??_C@_1DDG@BMAHIJFL@?$AA?$CI?$AA?$CB?$AA?$CI?$AAR?$AAo?$AAw?$AAs?$AAA?$AAt?$AAC?$AAo?$AAm?$AAp?$AAi?$AAl?$AAe?$AAT?$AAi?$AAm?$AAe?$AA?$CB?$AA?$DN?$AAD?$AAy?$AAn?$AAa?$AAm?$AAi?$AAc?$AA?$CJ?$AA?5?$AA?$HM@ 000000018000f780     deformableDiversity.obj
 0002:00001ac0       ??_C@_1CCG@OOFKGNBC@?$AA?$CI?$AA?$CB?$AAc?$AAh?$AAe?$AAc?$AAk?$AA_?$AAt?$AAr?$AAa?$AAn?$AAs?$AAp?$AAo?$AAs?$AAe?$AA_?$AAa?$AAl?$AAi?$AAa?$AAs?$AAi?$AAn?$AAg?$AA_?$AAr?$AAu?$AAn?$AA_?$AAt@ 000000018000fac0     deformableDiversity.obj
 0002:00001cf0       ??_7bad_alloc@std@@6B@     000000018000fcf0     deformableDiversity.obj
 0002:00001d08       ??_7?$_LaunchPad@V?$_Bind@$00XQ6AXUddisScanParams@@@ZV?$reference_wrapper@UddisScanParams@@@std@@@std@@@std@@6B@ 000000018000fd08     deformableDiversity.obj
 0002:00001d10       ??_C@_0BC@KBDMBKEH@deque?$DMT?$DO?5too?5long?$AA@ 000000018000fd10     tictoc.obj
 0002:00001d24       ??_C@_03OMNKNMFO@m00?$AA@  000000018000fd24     mex_opencv_2.4:MxArray.obj
 0002:00001d28       ??_C@_03ONBILGGJ@m10?$AA@  000000018000fd28     mex_opencv_2.4:MxArray.obj
 0002:00001d2c       ??_C@_03PFMBONBP@m01?$AA@  000000018000fd2c     mex_opencv_2.4:MxArray.obj
 0002:00001d30       ??_C@_03OPFOAIDA@m20?$AA@  000000018000fd30     mex_opencv_2.4:MxArray.obj
 0002:00001d34       ??_C@_03PEADIHCI@m11?$AA@  000000018000fd34     mex_opencv_2.4:MxArray.obj
 0002:00001d38       ??_C@_03NOOMLONM@m02?$AA@  000000018000fd38     mex_opencv_2.4:MxArray.obj
 0002:00001d3c       ??_C@_03OOJMGCAH@m30?$AA@  000000018000fd3c     mex_opencv_2.4:MxArray.obj
 0002:00001d40       ??_C@_03PGEFDJHB@m21?$AA@  000000018000fd40     mex_opencv_2.4:MxArray.obj
 0002:00001d44       ??_C@_03NPCONEOL@m12?$AA@  000000018000fd44     mex_opencv_2.4:MxArray.obj
 0002:00001d48       ??_C@_03MHPHIPJN@m03?$AA@  000000018000fd48     mex_opencv_2.4:MxArray.obj
 0002:00001d4c       ??_C@_06BBLOAEEI@center?$AA@ 000000018000fd4c     mex_opencv_2.4:MxArray.obj
 0002:00001d54       ??_C@_04IAGNFIBA@size?$AA@ 000000018000fd54     mex_opencv_2.4:MxArray.obj
 0002:00001d5c       ??_C@_05FECBCJJD@angle?$AA@ 000000018000fd5c     mex_opencv_2.4:MxArray.obj
 0002:00001d64       ??_C@_04GPMDFGEJ@type?$AA@ 000000018000fd64     mex_opencv_2.4:MxArray.obj
 0002:00001d70       ??_C@_08LAEJCBOD@maxCount?$AA@ 000000018000fd70     mex_opencv_2.4:MxArray.obj
 0002:00001d80       ??_C@_07DOCPLGLO@epsilon?$AA@ 000000018000fd80     mex_opencv_2.4:MxArray.obj
 0002:00001d88       ??_C@_02BPBMPCEP@pt?$AA@   000000018000fd88     mex_opencv_2.4:MxArray.obj
 0002:00001d90       ??_C@_08HKMEAON@response?$AA@ 000000018000fd90     mex_opencv_2.4:MxArray.obj
 0002:00001d9c       ??_C@_06FGDDDMBA@octave?$AA@ 000000018000fd9c     mex_opencv_2.4:MxArray.obj
 0002:00001da8       ??_C@_08DAKAAABN@class_id?$AA@ 000000018000fda8     mex_opencv_2.4:MxArray.obj
 0002:00001db8       ??_C@_08DPBMGJLA@queryIdx?$AA@ 000000018000fdb8     mex_opencv_2.4:MxArray.obj
 0002:00001dc8       ??_C@_08DANALIDP@trainIdx?$AA@ 000000018000fdc8     mex_opencv_2.4:MxArray.obj
 0002:00001dd4       ??_C@_06KNOBBJNL@imgIdx?$AA@ 000000018000fdd4     mex_opencv_2.4:MxArray.obj
 0002:00001de0       ??_C@_08LHFODBFO@distance?$AA@ 000000018000fde0     mex_opencv_2.4:MxArray.obj
 0002:00001dec       ??_C@_05IJGIMMHE@Count?$AA@ 000000018000fdec     mex_opencv_2.4:MxArray.obj
 0002:00001df4       ??_C@_03IPFLKIML@EPS?$AA@  000000018000fdf4     mex_opencv_2.4:MxArray.obj
 0002:00001df8       ??_C@_09KCFJBEPJ@Count?$CLEPS?$AA@ 000000018000fdf8     mex_opencv_2.4:MxArray.obj
 0002:00001e08       ??_C@_0BI@NHMNOK@MxArray?5is?5not?5a?5scalar?$AA@ 000000018000fe08     mex_opencv_2.4:MxArray.obj
 0002:00001e20       ??_C@_0BJ@IFLAJFGC@MxArray?5not?5of?5type?5char?$AA@ 000000018000fe20     mex_opencv_2.4:MxArray.obj
 0002:00001e40       ??_C@_0BE@JONHPENG@map?1set?$DMT?$DO?5too?5long?$AA@ 000000018000fe40     mex_opencv_2.4:MxArray.obj
 0002:00001f20       __real@3f800000            000000018000ff20     diversity.obj
 0002:00001f28       __real@3ff0000000000000    000000018000ff28     deformableDiversity.obj
 0002:00001f30       __real@43f0000000000000    000000018000ff30     mex_opencv_2.4:MxArray.obj
 0002:00001f38       __real@5f800000            000000018000ff38     diversity.obj
 0002:00001f40       __real@bff0000000000000    000000018000ff40     deformableDiversity.obj
 0002:000024c0       _load_config_used          00000001800104c0     MSVCRT:loadcfg.obj
 0002:000025c0       ??_R4type_info@@6B@        00000001800105c0     MSVCRT:ti_inst.obj
 0002:000025e8       ??_R3type_info@@8          00000001800105e8     MSVCRT:ti_inst.obj
 0002:00002600       ??_R2type_info@@8          0000000180010600     MSVCRT:ti_inst.obj
 0002:00002610       ??_R1A@?0A@EA@type_info@@8 0000000180010610     MSVCRT:ti_inst.obj
 0002:00002638       ??_R1A@?0A@EA@MxArray@@8   0000000180010638     diversity.obj
 0002:00002660       ??_R2MxArray@@8            0000000180010660     diversity.obj
 0002:00002670       ??_R3error_category@std@@8 0000000180010670     diversity.obj
 0002:00002688       ??_R1A@?0A@EA@error_category@std@@8 0000000180010688     diversity.obj
 0002:000026b0       ??_R3_System_error_category@std@@8 00000001800106b0     diversity.obj
 0002:000026c8       ??_R2_System_error_category@std@@8 00000001800106c8     diversity.obj
 0002:000026e8       ??_R4_Generic_error_category@std@@6B@ 00000001800106e8     diversity.obj
 0002:00002710       ??_R1A@?0A@EA@_Generic_error_category@std@@8 0000000180010710     diversity.obj
 0002:00002738       ??_R1A@?0A@EA@_Iostream_error_category@std@@8 0000000180010738     diversity.obj
 0002:00002760       ??_R4error_category@std@@6B@ 0000000180010760     diversity.obj
 0002:00002788       ??_R4_Iostream_error_category@std@@6B@ 0000000180010788     diversity.obj
 0002:000027b0       ??_R4MxArray@@6B@          00000001800107b0     diversity.obj
 0002:000027d8       ??_R2error_category@std@@8 00000001800107d8     diversity.obj
 0002:000027e8       ??_R1A@?0A@EA@_System_error_category@std@@8 00000001800107e8     diversity.obj
 0002:00002810       ??_R3_Iostream_error_category@std@@8 0000000180010810     diversity.obj
 0002:00002828       ??_R3MxArray@@8            0000000180010828     diversity.obj
 0002:00002840       ??_R4_System_error_category@std@@6B@ 0000000180010840     diversity.obj
 0002:00002868       ??_R2_Generic_error_category@std@@8 0000000180010868     diversity.obj
 0002:00002880       ??_R3_Generic_error_category@std@@8 0000000180010880     diversity.obj
 0002:00002898       ??_R2_Iostream_error_category@std@@8 0000000180010898     diversity.obj
 0002:000028b8       ??_R1A@?0A@EA@?$basic_ostream@DU?$char_traits@D@std@@@std@@8 00000001800108b8     main.obj
 0002:000028e0       ??_R2ios_base@std@@8       00000001800108e0     main.obj
 0002:000028f8       ??_R1A@?0A@EA@?$basic_ios@DU?$char_traits@D@std@@@std@@8 00000001800108f8     main.obj
 0002:00002920       ??_R2?$basic_stringbuf@DU?$char_traits@D@std@@V?$allocator@D@2@@std@@8 0000000180010920     main.obj
 0002:00002938       ??_R2?$_Iosb@H@std@@8      0000000180010938     main.obj
 0002:00002948       ??_R1A@?0A@EA@?$basic_ostringstream@DU?$char_traits@D@std@@V?$allocator@D@2@@std@@8 0000000180010948     main.obj
 0002:00002970       ??_R3?$basic_ios@DU?$char_traits@D@std@@@std@@8 0000000180010970     main.obj
 0002:00002988       ??_R17A@3EA@?$_Iosb@H@std@@8 0000000180010988     main.obj
 0002:000029b0       ??_R2?$basic_ostringstream@DU?$char_traits@D@std@@V?$allocator@D@2@@std@@8 00000001800109b0     main.obj
 0002:000029e0       ??_R3?$basic_stringbuf@DU?$char_traits@D@std@@V?$allocator@D@2@@std@@8 00000001800109e0     main.obj
 0002:000029f8       ??_R1A@?0A@EA@ios_base@std@@8 00000001800109f8     main.obj
 0002:00002a20       ??_R2?$basic_ios@DU?$char_traits@D@std@@@std@@8 0000000180010a20     main.obj
 0002:00002a40       ??_R1A@?0A@EA@?$basic_stringbuf@DU?$char_traits@D@std@@V?$allocator@D@2@@std@@8 0000000180010a40     main.obj
 0002:00002a68       ??_R17?0A@EA@?$_Iosb@H@std@@8 0000000180010a68     main.obj
 0002:00002a90       ??_R4?$basic_stringbuf@DU?$char_traits@D@std@@V?$allocator@D@2@@std@@6B@ 0000000180010a90     main.obj
 0002:00002ab8       ??_R3?$basic_streambuf@DU?$char_traits@D@std@@@std@@8 0000000180010ab8     main.obj
 0002:00002ad0       ??_R3ios_base@std@@8       0000000180010ad0     main.obj
 0002:00002ae8       ??_R1A@?0A@EA@?$basic_streambuf@DU?$char_traits@D@std@@@std@@8 0000000180010ae8     main.obj
 0002:00002b10       ??_R4?$basic_ostringstream@DU?$char_traits@D@std@@V?$allocator@D@2@@std@@6B@ 0000000180010b10     main.obj
 0002:00002b38       ??_R1A@A@3FA@?$basic_ios@DU?$char_traits@D@std@@@std@@8 0000000180010b38     main.obj
 0002:00002b60       ??_R3?$basic_ostream@DU?$char_traits@D@std@@@std@@8 0000000180010b60     main.obj
 0002:00002b78       ??_R2?$basic_ostream@DU?$char_traits@D@std@@@std@@8 0000000180010b78     main.obj
 0002:00002ba0       ??_R1A@A@3EA@ios_base@std@@8 0000000180010ba0     main.obj
 0002:00002bc8       ??_R1A@?0A@EA@?$_Iosb@H@std@@8 0000000180010bc8     main.obj
 0002:00002bf0       ??_R3?$_Iosb@H@std@@8      0000000180010bf0     main.obj
 0002:00002c08       ??_R2?$basic_streambuf@DU?$char_traits@D@std@@@std@@8 0000000180010c08     main.obj
 0002:00002c18       ??_R3?$basic_ostringstream@DU?$char_traits@D@std@@V?$allocator@D@2@@std@@8 0000000180010c18     main.obj
 0002:00002c30       ??_R1A@?0A@EA@exception@std@@8 0000000180010c30     deformableDiversity.obj
 0002:00002c58       ??_R4?$_LaunchPad@V?$_Bind@$00XQ6AXUddisScanParams@@@ZV?$reference_wrapper@UddisScanParams@@@std@@@std@@@std@@6B@ 0000000180010c58     deformableDiversity.obj
 0002:00002c80       ??_R3_Pad@std@@8           0000000180010c80     deformableDiversity.obj
 0002:00002c98       ??_R2bad_alloc@std@@8      0000000180010c98     deformableDiversity.obj
 0002:00002cb0       ??_R1A@?0A@EA@bad_alloc@std@@8 0000000180010cb0     deformableDiversity.obj
 0002:00002cd8       ??_R1A@?0A@EA@_Pad@std@@8  0000000180010cd8     deformableDiversity.obj
 0002:00002d00       ??_R2_Pad@std@@8           0000000180010d00     deformableDiversity.obj
 0002:00002d10       ??_R3bad_alloc@std@@8      0000000180010d10     deformableDiversity.obj
 0002:00002d28       ??_R2exception@std@@8      0000000180010d28     deformableDiversity.obj
 0002:00002d38       ??_R3exception@std@@8      0000000180010d38     deformableDiversity.obj
 0002:00002d50       ??_R4bad_alloc@std@@6B@    0000000180010d50     deformableDiversity.obj
 0002:00002d78       ??_R1A@?0A@EA@?$_LaunchPad@V?$_Bind@$00XQ6AXUddisScanParams@@@ZV?$reference_wrapper@UddisScanParams@@@std@@@std@@@std@@8 0000000180010d78     deformableDiversity.obj
 0002:00002da0       ??_R2?$_LaunchPad@V?$_Bind@$00XQ6AXUddisScanParams@@@ZV?$reference_wrapper@UddisScanParams@@@std@@@std@@@std@@8 0000000180010da0     deformableDiversity.obj
 0002:00002db8       ??_R3?$_LaunchPad@V?$_Bind@$00XQ6AXUddisScanParams@@@ZV?$reference_wrapper@UddisScanParams@@@std@@@std@@@std@@8 0000000180010db8     deformableDiversity.obj
 0002:00002dd0       __rtc_iaa                  0000000180010dd0     MSVCRT:initsect.obj
 0002:00002dd8       __rtc_izz                  0000000180010dd8     MSVCRT:initsect.obj
 0002:00002de0       __rtc_taa                  0000000180010de0     MSVCRT:initsect.obj
 0002:00002de8       __rtc_tzz                  0000000180010de8     MSVCRT:initsect.obj
 0002:00004ac0       _CT??_R0?AVexception@std@@@8??0exception@std@@QEAA@AEBV01@@Z24 0000000180012ac0     deformableDiversity.obj
 0002:00004ae8       _CTA2?AVbad_alloc@std@@    0000000180012ae8     deformableDiversity.obj
 0002:00004b00       _CT??_R0?AVbad_alloc@std@@@8??0bad_alloc@std@@QEAA@AEBV01@@Z24 0000000180012b00     deformableDiversity.obj
 0002:00004b28       _TI2?AVbad_alloc@std@@     0000000180012b28     deformableDiversity.obj
 0002:00004ba0       __IMPORT_DESCRIPTOR_libmx  0000000180012ba0     libmx:libmx.dll
 0002:00004bb4       __IMPORT_DESCRIPTOR_libmex 0000000180012bb4     libmex:libmex.dll
 0002:00004bc8       __IMPORT_DESCRIPTOR_MSVCP120 0000000180012bc8     msvcprt:MSVCP120.dll
 0002:00004bdc       __IMPORT_DESCRIPTOR_MSVCR120 0000000180012bdc     MSVCRT:MSVCR120.dll
 0002:00004bf0       __IMPORT_DESCRIPTOR_KERNEL32 0000000180012bf0     kernel32:KERNEL32.dll
 0002:00004c04       __NULL_IMPORT_DESCRIPTOR   0000000180012c04     libmx:libmx.dll
 0003:00000000       __security_cookie          0000000180014000     MSVCRT:gs_cookie.obj
 0003:00000008       __security_cookie_complement 0000000180014008     MSVCRT:gs_cookie.obj
 0003:00000010       __native_dllmain_reason    0000000180014010     MSVCRT:natstart.obj
 0003:00000020       ?cv_dmatch_fields@?A0x6487b33d@@3PAPEBDA 0000000180014020     mex_opencv_2.4:MxArray.obj
 0003:00000040       ?cv_rotated_rect_fields@?A0x6487b33d@@3PAPEBDA 0000000180014040     mex_opencv_2.4:MxArray.obj
 0003:00000058       ?cv_term_criteria_fields@?A0x6487b33d@@3PAPEBDA 0000000180014058     mex_opencv_2.4:MxArray.obj
 0003:00000070       ?cv_moments_fields@?A0x6487b33d@@3PAPEBDA 0000000180014070     mex_opencv_2.4:MxArray.obj
 0003:000000c0       ?cv_keypoint_fields@?A0x6487b33d@@3PAPEBDA 00000001800140c0     mex_opencv_2.4:MxArray.obj
 0003:000000f0       ?_System_object@?$_Error_objects@H@std@@2V_System_error_category@2@A 00000001800140f0     diversity.obj
 0003:000000f8       ?_Iostream_object@?$_Error_objects@H@std@@2V_Iostream_error_category@2@A 00000001800140f8     diversity.obj
 0003:00000100       ?_Generic_object@?$_Error_objects@H@std@@2V_Generic_error_category@2@A 0000000180014100     diversity.obj
 0003:00000108       _fltused                   0000000180014108     MSVCRT:dllsupp.obj
 0003:00000110       ??_R0?AVtype_info@@@8      0000000180014110     MSVCRT:ti_inst.obj
 0003:00000130       ??_R0?AVMxArray@@@8        0000000180014130     diversity.obj
 0003:00000150       ??_R0?AV_Iostream_error_category@std@@@8 0000000180014150     diversity.obj
 0003:00000188       ??_R0?AV_System_error_category@std@@@8 0000000180014188     diversity.obj
 0003:000001c0       ??_R0?AVerror_category@std@@@8 00000001800141c0     diversity.obj
 0003:000001f0       ??_R0?AV_Generic_error_category@std@@@8 00000001800141f0     diversity.obj
 0003:00000228       ??_R0?AV?$basic_ios@DU?$char_traits@D@std@@@std@@@8 0000000180014228     main.obj
 0003:00000270       ??_R0?AV?$basic_stringbuf@DU?$char_traits@D@std@@V?$allocator@D@2@@std@@@8 0000000180014270     main.obj
 0003:000002c8       ??_R0?AV?$_Iosb@H@std@@@8  00000001800142c8     main.obj
 0003:000002f0       ??_R0H@8                   00000001800142f0     main.obj
 0003:00000310       ??_R0?AV?$basic_ostream@DU?$char_traits@D@std@@@std@@@8 0000000180014310     main.obj
 0003:00000360       ??_R0?AV?$basic_streambuf@DU?$char_traits@D@std@@@std@@@8 0000000180014360     main.obj
 0003:000003b0       ??_R0?AV?$basic_ostringstream@DU?$char_traits@D@std@@V?$allocator@D@2@@std@@@8 00000001800143b0     main.obj
 0003:00000410       ??_R0?AVios_base@std@@@8   0000000180014410     main.obj
 0003:00000438       ??_R0?AV_Pad@std@@@8       0000000180014438     deformableDiversity.obj
 0003:00000458       ??_R0?AVexception@std@@@8  0000000180014458     deformableDiversity.obj
 0003:00000480       ??_R0?AV?$_LaunchPad@V?$_Bind@$00XQ6AXUddisScanParams@@@ZV?$reference_wrapper@UddisScanParams@@@std@@@std@@@std@@@8 0000000180014480     deformableDiversity.obj
 0003:00000500       ??_R0?AVbad_alloc@std@@@8  0000000180014500     deformableDiversity.obj
 0003:00000ac8       ?__type_info_root_node@@3U__type_info_node@@A 0000000180014ac8     MSVCRT:tncleanup.obj
 0003:00000ae8       ?All@DiversityTypes@@2V?$vector@PEBDV?$allocator@PEBD@std@@@std@@A 0000000180014ae8     main.obj
 0003:00000b20       ?tictoc_stack@@3V?$stack@JV?$deque@JV?$allocator@J@std@@@std@@@std@@A 0000000180014b20     tictoc.obj
 0003:00000b78       ?id@?$num_put@_WV?$back_insert_iterator@V?$basic_string@_WU?$char_traits@_W@std@@V?$allocator@_W@2@@std@@@std@@@std@@2V0locale@2@A 0000000180014b78     diversity.obj
 0003:00000b80       ?id@?$num_put@DV?$back_insert_iterator@V?$basic_string@DU?$char_traits@D@std@@V?$allocator@D@2@@std@@@std@@@std@@2V0locale@2@A 0000000180014b80     diversity.obj
 0003:00000b88       __native_startup_lock      0000000180014b88     <common>
 0003:00000b90       __native_startup_state     0000000180014b90     <common>
 0003:00000b98       __dyn_tls_init_callback    0000000180014b98     <common>
 0003:00000ba0       __onexitend                0000000180014ba0     <common>
 0003:00000ba8       __onexitbegin              0000000180014ba8     <common>

 entry point at        0001:0000ae0c

 Static symbols

 0000:fffe9000       .debug$S                   0000000180000000     MSVCRT:MSVCR120.dll
 0000:fffe9000       .debug$S                   0000000180000000     libmx:libmx.dll
 0000:fffe9000       .debug$S                   0000000180000000     libmx:libmx.dll
 0000:fffe9000       .debug$S                   0000000180000000     libmx:libmx.dll
 0000:fffe9000       .debug$S                   0000000180000000     libmx:libmx.dll
 0000:fffe9000       .debug$S                   0000000180000000     libmx:libmx.dll
 0000:fffe9000       .debug$S                   0000000180000000     libmx:libmx.dll
 0000:fffe9000       .debug$S                   0000000180000000     libmx:libmx.dll
 0000:fffe9000       .debug$S                   0000000180000000     libmx:libmx.dll
 0000:fffe9000       .debug$S                   0000000180000000     libmex:libmex.dll
 0000:fffe9000       .debug$S                   0000000180000000     libmex:libmex.dll
 0000:fffe9000       .debug$S                   0000000180000000     libmex:libmex.dll
 0000:fffe9000       .debug$S                   0000000180000000     libmex:libmex.dll
 0000:fffe9000       .debug$S                   0000000180000000     opencv_core2412:opencv_core2412.dll
 0000:fffe9000       .debug$S                   0000000180000000     opencv_core2412:opencv_core2412.dll
 0000:fffe9000       .debug$S                   0000000180000000     opencv_core2412:opencv_core2412.dll
 0000:fffe9000       .debug$S                   0000000180000000     opencv_core2412:opencv_core2412.dll
 0000:fffe9000       .debug$S                   0000000180000000     opencv_core2412:opencv_core2412.dll
 0000:fffe9000       .debug$S                   0000000180000000     opencv_core2412:opencv_core2412.dll
 0000:fffe9000       .debug$S                   0000000180000000     opencv_core2412:opencv_core2412.dll
 0000:fffe9000       .debug$S                   0000000180000000     opencv_core2412:opencv_core2412.dll
 0000:fffe9000       .debug$S                   0000000180000000     MSVCRT:MSVCR120.dll
 0000:fffe9000       .debug$S                   0000000180000000     MSVCRT:MSVCR120.dll
 0000:fffe9000       .debug$S                   0000000180000000     MSVCRT:MSVCR120.dll
 0000:fffe9000       .debug$S                   0000000180000000     MSVCRT:MSVCR120.dll
 0000:fffe9000       .debug$S                   0000000180000000     MSVCRT:MSVCR120.dll
 0000:fffe9000       .debug$S                   0000000180000000     MSVCRT:MSVCR120.dll
 0000:fffe9000       .debug$S                   0000000180000000     MSVCRT:MSVCR120.dll
 0000:fffe9000       .debug$S                   0000000180000000     MSVCRT:MSVCR120.dll
 0000:fffe9000       .debug$S                   0000000180000000     MSVCRT:MSVCR120.dll
 0000:fffe9000       .debug$S                   0000000180000000     MSVCRT:MSVCR120.dll
 0000:fffe9000       .debug$S                   0000000180000000     MSVCRT:MSVCR120.dll
 0000:fffe9000       .debug$S                   0000000180000000     MSVCRT:MSVCR120.dll
 0000:fffe9000       .debug$S                   0000000180000000     MSVCRT:MSVCR120.dll
 0000:fffe9000       .debug$S                   0000000180000000     MSVCRT:MSVCR120.dll
 0000:fffe9000       .debug$S                   0000000180000000     MSVCRT:MSVCR120.dll
 0000:fffe9000       .debug$S                   0000000180000000     MSVCRT:MSVCR120.dll
 0000:fffe9000       .debug$S                   0000000180000000     MSVCRT:MSVCR120.dll
 0000:fffe9000       .debug$S                   0000000180000000     MSVCRT:MSVCR120.dll
 0000:fffe9000       .debug$S                   0000000180000000     MSVCRT:MSVCR120.dll
 0000:fffe9000       .debug$S                   0000000180000000     MSVCRT:MSVCR120.dll
 0000:fffe9000       .debug$S                   0000000180000000     MSVCRT:MSVCR120.dll
 0000:fffe9000       .debug$S                   0000000180000000     MSVCRT:MSVCR120.dll
 0000:fffe9000       .debug$S                   0000000180000000     MSVCRT:MSVCR120.dll
 0000:fffe9000       .debug$S                   0000000180000000     MSVCRT:MSVCR120.dll
 0000:fffe9000       .debug$S                   0000000180000000     MSVCRT:MSVCR120.dll
 0000:fffe9000       .debug$S                   0000000180000000     MSVCRT:MSVCR120.dll
 0000:fffe9000       .debug$S                   0000000180000000     MSVCRT:MSVCR120.dll
 0000:fffe9000       .debug$S                   0000000180000000     MSVCRT:MSVCR120.dll
 0000:fffe9000       .debug$S                   0000000180000000     MSVCRT:MSVCR120.dll
 0000:fffe9000       .debug$S                   0000000180000000     MSVCRT:MSVCR120.dll
 0000:fffe9000       .debug$S                   0000000180000000     MSVCRT:MSVCR120.dll
 0000:fffe9000       .debug$S                   0000000180000000     MSVCRT:MSVCR120.dll
 0000:fffe9000       .debug$S                   0000000180000000     MSVCRT:MSVCR120.dll
 0000:fffe9000       .debug$S                   0000000180000000     MSVCRT:MSVCR120.dll
 0000:fffe9000       .debug$S                   0000000180000000     MSVCRT:MSVCR120.dll
 0000:fffe9000       .debug$S                   0000000180000000     MSVCRT:MSVCR120.dll
 0000:fffe9000       .debug$S                   0000000180000000     MSVCRT:MSVCR120.dll
 0000:fffe9000       .debug$S                   0000000180000000     MSVCRT:MSVCR120.dll
 0000:fffe9000       .debug$S                   0000000180000000     MSVCRT:MSVCR120.dll
 0000:fffe9000       .debug$S                   0000000180000000     opencv_core2412:opencv_core2412.dll
 0000:fffe9000       .debug$S                   0000000180000000     opencv_core2412:opencv_core2412.dll
 0000:fffe9000       .debug$S                   0000000180000000     opencv_core2412:opencv_core2412.dll
 0000:fffe9000       .debug$S                   0000000180000000     opencv_core2412:opencv_core2412.dll
 0000:fffe9000       .debug$S                   0000000180000000     opencv_core2412:opencv_core2412.dll
 0000:fffe9000       .debug$S                   0000000180000000     opencv_core2412:opencv_core2412.dll
 0000:fffe9000       .debug$S                   0000000180000000     opencv_core2412:opencv_core2412.dll
 0000:fffe9000       .debug$S                   0000000180000000     opencv_core2412:opencv_core2412.dll
 0000:fffe9000       .debug$S                   0000000180000000     libmx:libmx.dll
 0000:fffe9000       .debug$S                   0000000180000000     msvcprt:MSVCP120.dll
 0000:fffe9000       .debug$S                   0000000180000000     msvcprt:MSVCP120.dll
 0000:fffe9000       .debug$S                   0000000180000000     msvcprt:MSVCP120.dll
 0000:fffe9000       .debug$S                   0000000180000000     msvcprt:MSVCP120.dll
 0000:fffe9000       .debug$S                   0000000180000000     msvcprt:MSVCP120.dll
 0000:fffe9000       .debug$S                   0000000180000000     msvcprt:MSVCP120.dll
 0000:fffe9000       .debug$S                   0000000180000000     msvcprt:MSVCP120.dll
 0000:fffe9000       .debug$S                   0000000180000000     msvcprt:MSVCP120.dll
 0000:fffe9000       .debug$S                   0000000180000000     msvcprt:MSVCP120.dll
 0000:fffe9000       .debug$S                   0000000180000000     msvcprt:MSVCP120.dll
 0000:fffe9000       .debug$S                   0000000180000000     msvcprt:MSVCP120.dll
 0000:fffe9000       .debug$S                   0000000180000000     msvcprt:MSVCP120.dll
 0000:fffe9000       .debug$S                   0000000180000000     msvcprt:MSVCP120.dll
 0000:fffe9000       .debug$S                   0000000180000000     msvcprt:MSVCP120.dll
 0000:fffe9000       .debug$S                   0000000180000000     msvcprt:MSVCP120.dll
 0000:fffe9000       .debug$S                   0000000180000000     msvcprt:MSVCP120.dll
 0000:fffe9000       .debug$S                   0000000180000000     msvcprt:MSVCP120.dll
 0000:fffe9000       .debug$S                   0000000180000000     msvcprt:MSVCP120.dll
 0000:fffe9000       .debug$S                   0000000180000000     msvcprt:MSVCP120.dll
 0000:fffe9000       .debug$S                   0000000180000000     msvcprt:MSVCP120.dll
 0000:fffe9000       .debug$S                   0000000180000000     msvcprt:MSVCP120.dll
 0000:fffe9000       .debug$S                   0000000180000000     msvcprt:MSVCP120.dll
 0000:fffe9000       .debug$S                   0000000180000000     msvcprt:MSVCP120.dll
 0000:fffe9000       .debug$S                   0000000180000000     msvcprt:MSVCP120.dll
 0000:fffe9000       .debug$S                   0000000180000000     msvcprt:MSVCP120.dll
 0000:fffe9000       .debug$S                   0000000180000000     msvcprt:MSVCP120.dll
 0000:fffe9000       .debug$S                   0000000180000000     msvcprt:MSVCP120.dll
 0000:fffe9000       .debug$S                   0000000180000000     msvcprt:MSVCP120.dll
 0000:fffe9000       .debug$S                   0000000180000000     msvcprt:MSVCP120.dll
 0000:fffe9000       .debug$S                   0000000180000000     msvcprt:MSVCP120.dll
 0000:fffe9000       .debug$S                   0000000180000000     msvcprt:MSVCP120.dll
 0000:fffe9000       .debug$S                   0000000180000000     msvcprt:MSVCP120.dll
 0000:fffe9000       .debug$S                   0000000180000000     msvcprt:MSVCP120.dll
 0000:fffe9000       .debug$S                   0000000180000000     msvcprt:MSVCP120.dll
 0000:fffe9000       .debug$S                   0000000180000000     msvcprt:MSVCP120.dll
 0000:fffe9000       .debug$S                   0000000180000000     msvcprt:MSVCP120.dll
 0000:fffe9000       .debug$S                   0000000180000000     msvcprt:MSVCP120.dll
 0000:fffe9000       .debug$S                   0000000180000000     msvcprt:MSVCP120.dll
 0000:fffe9000       .debug$S                   0000000180000000     msvcprt:MSVCP120.dll
 0000:fffe9000       .debug$S                   0000000180000000     msvcprt:MSVCP120.dll
 0000:fffe9000       .debug$S                   0000000180000000     msvcprt:MSVCP120.dll
 0000:fffe9000       .debug$S                   0000000180000000     msvcprt:MSVCP120.dll
 0000:fffe9000       .debug$S                   0000000180000000     msvcprt:MSVCP120.dll
 0000:fffe9000       .debug$S                   0000000180000000     msvcprt:MSVCP120.dll
 0000:fffe9000       .debug$S                   0000000180000000     msvcprt:MSVCP120.dll
 0000:fffe9000       .debug$S                   0000000180000000     msvcprt:MSVCP120.dll
 0000:fffe9000       .debug$S                   0000000180000000     msvcprt:MSVCP120.dll
 0000:fffe9000       .debug$S                   0000000180000000     msvcprt:MSVCP120.dll
 0000:fffe9000       .debug$S                   0000000180000000     msvcprt:MSVCP120.dll
 0000:fffe9000       .debug$S                   0000000180000000     msvcprt:MSVCP120.dll
 0000:fffe9000       .debug$S                   0000000180000000     msvcprt:MSVCP120.dll
 0000:fffe9000       .debug$S                   0000000180000000     msvcprt:MSVCP120.dll
 0000:fffe9000       .debug$S                   0000000180000000     msvcprt:MSVCP120.dll
 0000:fffe9000       .debug$S                   0000000180000000     msvcprt:MSVCP120.dll
 0000:fffe9000       .debug$S                   0000000180000000     msvcprt:MSVCP120.dll
 0000:fffe9000       .debug$S                   0000000180000000     msvcprt:MSVCP120.dll
 0000:fffe9000       .debug$S                   0000000180000000     msvcprt:MSVCP120.dll
 0000:fffe9000       .debug$S                   0000000180000000     msvcprt:MSVCP120.dll
 0000:fffe9000       .debug$S                   0000000180000000     msvcprt:MSVCP120.dll
 0000:fffe9000       .debug$S                   0000000180000000     msvcprt:MSVCP120.dll
 0000:fffe9000       .debug$S                   0000000180000000     msvcprt:MSVCP120.dll
 0000:fffe9000       .debug$S                   0000000180000000     msvcprt:MSVCP120.dll
 0000:fffe9000       .debug$S                   0000000180000000     msvcprt:MSVCP120.dll
 0000:fffe9000       .debug$S                   0000000180000000     msvcprt:MSVCP120.dll
 0000:fffe9000       .debug$S                   0000000180000000     kernel32:KERNEL32.dll
 0000:fffe9000       .debug$S                   0000000180000000     kernel32:KERNEL32.dll
 0000:fffe9000       .debug$S                   0000000180000000     opencv_core2412:opencv_core2412.dll
 0000:fffe9000       .debug$S                   0000000180000000     libmx:libmx.dll
 0000:fffe9000       .debug$S                   0000000180000000     libmx:libmx.dll
 0000:fffe9000       .debug$S                   0000000180000000     libmx:libmx.dll
 0000:fffe9000       .debug$S                   0000000180000000     libmx:libmx.dll
 0000:fffe9000       .debug$S                   0000000180000000     libmx:libmx.dll
 0000:fffe9000       .debug$S                   0000000180000000     libmx:libmx.dll
 0000:fffe9000       .debug$S                   0000000180000000     libmx:libmx.dll
 0000:fffe9000       .debug$S                   0000000180000000     libmx:libmx.dll
 0000:fffe9000       .debug$S                   0000000180000000     libmx:libmx.dll
 0000:fffe9000       .debug$S                   0000000180000000     opencv_core2412:opencv_core2412.dll
 0000:fffe9000       .debug$S                   0000000180000000     opencv_core2412:opencv_core2412.dll
 0002:ffff2000       .idata$6                   0000000180000000     opencv_core2412:opencv_core2412.dll
 0000:fffe9000       .debug$S                   0000000180000000     libmx:libmx.dll
 0000:fffe9000       .debug$S                   0000000180000000     libmx:libmx.dll
 0000:fffe9000       .debug$S                   0000000180000000     libmx:libmx.dll
 0000:fffe9000       .debug$S                   0000000180000000     libmx:libmx.dll
 0000:fffe9000       .debug$S                   0000000180000000     libmx:libmx.dll
 0000:fffe9000       .debug$S                   0000000180000000     opencv_imgproc2412:opencv_imgproc2412.dll
 0002:ffff2000       .idata$6                   0000000180000000     opencv_imgproc2412:opencv_imgproc2412.dll
 0000:fffe9000       .debug$S                   0000000180000000     kernel32:KERNEL32.dll
 0000:fffe9000       .debug$S                   0000000180000000     libmx:libmx.dll
 0000:fffe9000       .debug$S                   0000000180000000     libmx:libmx.dll
 0000:fffe9000       .debug$S                   0000000180000000     kernel32:KERNEL32.dll
 0000:fffe9000       .debug$S                   0000000180000000     kernel32:KERNEL32.dll
 0000:fffe9000       .debug$S                   0000000180000000     kernel32:KERNEL32.dll
 0000:fffe9000       .debug$S                   0000000180000000     kernel32:KERNEL32.dll
 0000:fffe9000       .debug$S                   0000000180000000     kernel32:KERNEL32.dll
 0000:fffe9000       .debug$S                   0000000180000000     libmx:libmx.dll
 0000:fffe9000       .debug$S                   0000000180000000     libmx:libmx.dll
 0000:fffe9000       .debug$S                   0000000180000000     kernel32:KERNEL32.dll
 0000:fffe9000       .debug$S                   0000000180000000     libmx:libmx.dll
 0000:fffe9000       .debug$S                   0000000180000000     libmx:libmx.dll
 0000:fffe9000       .debug$S                   0000000180000000     libmx:libmx.dll
 0000:fffe9000       .debug$S                   0000000180000000     libmx:libmx.dll
 0000:fffe9000       .debug$S                   0000000180000000     libmx:libmx.dll
 0000:fffe9000       .debug$S                   0000000180000000     libmx:libmx.dll
 0000:fffe9000       .debug$S                   0000000180000000     libmx:libmx.dll
 0000:fffe9000       .debug$S                   0000000180000000     libmx:libmx.dll
 0000:fffe9000       .debug$S                   0000000180000000     libmx:libmx.dll
 0000:fffe9000       .debug$S                   0000000180000000     libmx:libmx.dll
 0000:fffe9000       .debug$S                   0000000180000000     libmx:libmx.dll
 0000:fffe9000       .debug$S                   0000000180000000     libmx:libmx.dll
 0000:fffe9000       .debug$S                   0000000180000000     libmx:libmx.dll
 0001:00000000       ??__E?_Generic_object@?$_Error_objects@H@std@@2V_Generic_error_category@2@A@@YAXXZ 0000000180001000 f   diversity.obj
 0001:00000010       ??__E?_Iostream_object@?$_Error_objects@H@std@@2V_Iostream_error_category@2@A@@YAXXZ 0000000180001010 f   diversity.obj
 0001:00000020       ??__E?_System_object@?$_Error_objects@H@std@@2V_System_error_category@2@A@@YAXXZ 0000000180001020 f   diversity.obj
 0001:00000030       ??__E?All@DiversityTypes@@2V?$vector@PEBDV?$allocator@PEBD@std@@@std@@A@@YAXXZ 0000000180001030 f   main.obj
 0001:000000b0       ??__Etictoc_stack@@YAXXZ   00000001800010b0 f   tictoc.obj
 0001:00000150       ??__EDepthOf@?A0x6487b33d@@YAXXZ 0000000180001150 f   mex_opencv_2.4:MxArray.obj
 0001:00000660       ??__EClassIDOf@?A0x6487b33d@@YAXXZ 0000000180001660 f   mex_opencv_2.4:MxArray.obj
 0001:00000a60       ??__EInvTermCritType@?A0x6487b33d@@YAXXZ 0000000180001a60 f   mex_opencv_2.4:MxArray.obj
 0001:00000e30       ??__ETermCritType@?A0x6487b33d@@YAXXZ 0000000180001e30 f   mex_opencv_2.4:MxArray.obj
 0001:00002cc4       $LN25                      0000000180003cc4     diversity.obj
 0001:00008a74       $LN24                      0000000180009a74     mex_opencv_2.4:MxArray.obj
 0001:00008c70       $LN25                      0000000180009c70     mex_opencv_2.4:MxArray.obj
 0001:0000a990       $$000000                   000000018000b990     MSVCRT:amdsecgs.obj
 0001:0000ab60       pre_c_init                 000000018000bb60 f   MSVCRT:crtdll.obj
 0001:0000ae4c       __DllMainCRTStartup        000000018000be4c f   MSVCRT:crtdll.obj
 0001:0000b520       ?dtor$0@?0???0WeightedCountArray@dis@@QEAA@V?$vector@MV?$allocator@M@std@@@std@@@Z@4HA 000000018000c520 f   diversity.obj
 0001:0000b52c       ?dtor$1@?0???0WeightedCountArray@dis@@QEAA@V?$vector@MV?$allocator@M@std@@@std@@@Z@4HA 000000018000c52c f   diversity.obj
 0001:0000b538       ?dtor$2@?0???0WeightedCountArray@dis@@QEAA@V?$vector@MV?$allocator@M@std@@@std@@@Z@4HA 000000018000c538 f   diversity.obj
 0001:0000b548       ?dtor$3@?0???0WeightedCountArray@dis@@QEAA@V?$vector@MV?$allocator@M@std@@@std@@@Z@4HA 000000018000c548 f   diversity.obj
 0001:0000b560       ?dtor$0@?0??CalcDiversityMap@@YAXV?$Mat@H@dis@@HHV?$vector@MV?$allocator@M@std@@@std@@AEAV?$Mat@M@2@@Z@4HA 000000018000c560 f   diversity.obj
 0001:0000b570       ?dtor$0@?0??DiversityCount@dis@@YAXPEAPEAUmxArray_tag@@HPEAPEBU2@@Z@4HA 000000018000c570 f   diversity.obj
 0001:0000b580       ?dtor$0@?0??WeightedDiversityCount@dis@@YAXPEAPEAUmxArray_tag@@HPEAPEBU2@@Z@4HA 000000018000c580 f   diversity.obj
 0001:0000b58c       ?dtor$3@?0??WeightedDiversityCount@dis@@YAXPEAPEAUmxArray_tag@@HPEAPEBU2@@Z@4HA 000000018000c58c f   diversity.obj
 0001:0000b598       ?dtor$4@?0??WeightedDiversityCount@dis@@YAXPEAPEAUmxArray_tag@@HPEAPEBU2@@Z@4HA 000000018000c598 f   diversity.obj
 0001:0000b5a4       ?dtor$5@?0??WeightedDiversityCount@dis@@YAXPEAPEAUmxArray_tag@@HPEAPEBU2@@Z@4HA 000000018000c5a4 f   diversity.obj
 0001:0000b5b0       ?catch$1@?0??_Copy@?$basic_string@DU?$char_traits@D@std@@V?$allocator@D@2@@std@@QEAAX_K0@Z@4HA 000000018000c5b0 f   diversity.obj
 0001:0000b5bd       __catch$?_Copy@?$basic_string@DU?$char_traits@D@std@@V?$allocator@D@2@@std@@QEAAX_K0@Z$0 000000018000c5bd f   diversity.obj
 0001:0000b5f5       ?catch$0@?0??_Copy@?$basic_string@DU?$char_traits@D@std@@V?$allocator@D@2@@std@@QEAAX_K0@Z@4HA 000000018000c5f5 f   diversity.obj
 0001:0000b603       __catch$?_Copy@?$basic_string@DU?$char_traits@D@std@@V?$allocator@D@2@@std@@QEAAX_K0@Z$1 000000018000c603 f   diversity.obj
 0001:0000b640       ?dtor$0@?0??excapsulate@@YA?AV?$basic_string@DU?$char_traits@D@std@@V?$allocator@D@2@@std@@V12@0@Z@4HA 000000018000c640 f   main.obj
 0001:0000b64c       ?dtor$1@?0??excapsulate@@YA?AV?$basic_string@DU?$char_traits@D@std@@V?$allocator@D@2@@std@@V12@0@Z@4HA 000000018000c64c f   main.obj
 0001:0000b658       ?dtor$2@?0??excapsulate@@YA?AV?$basic_string@DU?$char_traits@D@std@@V?$allocator@D@2@@std@@V12@0@Z@4HA 000000018000c658 f   main.obj
 0001:0000b670       ?dtor$0@?0??BuildInputErrMessage@@YA?AV?$basic_string@DU?$char_traits@D@std@@V?$allocator@D@2@@std@@XZ@4HA 000000018000c670 f   main.obj
 0001:0000b67c       ?dtor$1@?0??BuildInputErrMessage@@YA?AV?$basic_string@DU?$char_traits@D@std@@V?$allocator@D@2@@std@@XZ@4HA 000000018000c67c f   main.obj
 0001:0000b688       ?dtor$3@?0??BuildInputErrMessage@@YA?AV?$basic_string@DU?$char_traits@D@std@@V?$allocator@D@2@@std@@XZ@4HA 000000018000c688 f   main.obj
 0001:0000b694       ?dtor$4@?0??BuildInputErrMessage@@YA?AV?$basic_string@DU?$char_traits@D@std@@V?$allocator@D@2@@std@@XZ@4HA 000000018000c694 f   main.obj
 0001:0000b6a0       ?dtor$6@?0??BuildInputErrMessage@@YA?AV?$basic_string@DU?$char_traits@D@std@@V?$allocator@D@2@@std@@XZ@4HA 000000018000c6a0 f   main.obj
 0001:0000b6ac       ?dtor$7@?0??BuildInputErrMessage@@YA?AV?$basic_string@DU?$char_traits@D@std@@V?$allocator@D@2@@std@@XZ@4HA 000000018000c6ac f   main.obj
 0001:0000b6b8       ?dtor$9@?0??BuildInputErrMessage@@YA?AV?$basic_string@DU?$char_traits@D@std@@V?$allocator@D@2@@std@@XZ@4HA 000000018000c6b8 f   main.obj
 0001:0000b6c4       ?dtor$10@?0??BuildInputErrMessage@@YA?AV?$basic_string@DU?$char_traits@D@std@@V?$allocator@D@2@@std@@XZ@4HA 000000018000c6c4 f   main.obj
 0001:0000b6d0       mexFunction$dtor$1         000000018000c6d0 f   main.obj
 0001:0000b6dc       mexFunction$dtor$2         000000018000c6dc f   main.obj
 0001:0000b6e8       mexFunction$catch$0        000000018000c6e8 f   main.obj
 0001:0000b6f6       __catch$mexFunction$0      000000018000c6f6 f   main.obj
 0001:0000b7be       mexFunction$dtor$4         000000018000c7be f   main.obj
 0001:0000b7ca       mexFunction$dtor$5         000000018000c7ca f   main.obj
 0001:0000b7d6       mexFunction$dtor$7         000000018000c7d6 f   main.obj
 0001:0000b7e2       mexFunction$dtor$8         000000018000c7e2 f   main.obj
 0001:0000b7ee       mexFunction$dtor$9         000000018000c7ee f   main.obj
 0001:0000b7fa       mexFunction$dtor$11        000000018000c7fa f   main.obj
 0001:0000b806       mexFunction$catch$1        000000018000c806 f   main.obj
 0001:0000b813       __catch$mexFunction$2      000000018000c813 f   main.obj
 0001:0000b8be       mexFunction$dtor$13        000000018000c8be f   main.obj
 0001:0000b8d0       ?dtor$0@?0???0?$basic_ostringstream@DU?$char_traits@D@std@@V?$allocator@D@2@@std@@QEAA@H@Z@4HA 000000018000c8d0 f   main.obj
 0001:0000b8fe       ?dtor$1@?0???0?$basic_ostringstream@DU?$char_traits@D@std@@V?$allocator@D@2@@std@@QEAA@H@Z@4HA 000000018000c8fe f   main.obj
 0001:0000b910       ?dtor$3@?0???0?$basic_ostringstream@DU?$char_traits@D@std@@V?$allocator@D@2@@std@@QEAA@H@Z@4HA 000000018000c910 f   main.obj
 0001:0000b920       ?dtor$0@?0???$?HDU?$char_traits@D@std@@V?$allocator@D@1@@std@@YA?AV?$basic_string@DU?$char_traits@D@std@@V?$allocator@D@2@@0@AEBV10@0@Z@4HA 000000018000c920 f   main.obj
 0001:0000b950       ?dtor$1@?0???$?6U?$char_traits@D@std@@@std@@YAAEAV?$basic_ostream@DU?$char_traits@D@std@@@0@AEAV10@PEBD@Z@4HA 000000018000c950 f   main.obj
 0001:0000b95c       ?dtor$0@?0???$?6U?$char_traits@D@std@@@std@@YAAEAV?$basic_ostream@DU?$char_traits@D@std@@@0@AEAV10@PEBD@Z@4HA 000000018000c95c f   main.obj
 0001:0000b968       ?catch$0@?0???$?6U?$char_traits@D@std@@@std@@YAAEAV?$basic_ostream@DU?$char_traits@D@std@@@0@AEAV10@PEBD@Z@4HA 000000018000c968 f   main.obj
 0001:0000b975       __catch$??$?6U?$char_traits@D@std@@@std@@YAAEAV?$basic_ostream@DU?$char_traits@D@std@@@0@AEAV10@PEBD@Z$0 000000018000c975 f   main.obj
 0001:0000b9a0       ?dtor$1@?0???$?6DU?$char_traits@D@std@@V?$allocator@D@1@@std@@YAAEAV?$basic_ostream@DU?$char_traits@D@std@@@0@AEAV10@AEBV?$basic_string@DU?$char_traits@D@std@@V?$allocator@D@2@@0@@Z@4HA 000000018000c9a0 f   main.obj
 0001:0000b9ac       ?dtor$0@?0???$?6DU?$char_traits@D@std@@V?$allocator@D@1@@std@@YAAEAV?$basic_ostream@DU?$char_traits@D@std@@@0@AEAV10@AEBV?$basic_string@DU?$char_traits@D@std@@V?$allocator@D@2@@0@@Z@4HA 000000018000c9ac f   main.obj
 0001:0000b9b8       ?catch$0@?0???$?6DU?$char_traits@D@std@@V?$allocator@D@1@@std@@YAAEAV?$basic_ostream@DU?$char_traits@D@std@@@0@AEAV10@AEBV?$basic_string@DU?$char_traits@D@std@@V?$allocator@D@2@@0@@Z@4HA 000000018000c9b8 f   main.obj
 0001:0000b9c5       __catch$??$?6DU?$char_traits@D@std@@V?$allocator@D@1@@std@@YAAEAV?$basic_ostream@DU?$char_traits@D@std@@@0@AEAV10@AEBV?$basic_string@DU?$char_traits@D@std@@V?$allocator@D@2@@0@@Z$0 000000018000c9c5 f   main.obj
 0001:0000b9f0       ?dtor$0@?0???$stringJoin@PEBD@@YA?AV?$basic_string@DU?$char_traits@D@std@@V?$allocator@D@2@@std@@V01@V?$vector@PEBDV?$allocator@PEBD@std@@@1@@Z@4HA 000000018000c9f0 f   main.obj
 0001:0000b9fc       ?dtor$1@?0???$stringJoin@PEBD@@YA?AV?$basic_string@DU?$char_traits@D@std@@V?$allocator@D@2@@std@@V01@V?$vector@PEBDV?$allocator@PEBD@std@@@1@@Z@4HA 000000018000c9fc f   main.obj
 0001:0000ba08       ?dtor$3@?0???$stringJoin@PEBD@@YA?AV?$basic_string@DU?$char_traits@D@std@@V?$allocator@D@2@@std@@V01@V?$vector@PEBDV?$allocator@PEBD@std@@@1@@Z@4HA 000000018000ca08 f   main.obj
 0001:0000ba20       ?dtor$1@?0???$?6U?$char_traits@D@std@@@std@@YAAEAV?$basic_ostream@DU?$char_traits@D@std@@@0@AEAV10@D@Z@4HA 000000018000ca20 f   main.obj
 0001:0000ba2c       ?dtor$0@?0???$?6U?$char_traits@D@std@@@std@@YAAEAV?$basic_ostream@DU?$char_traits@D@std@@@0@AEAV10@D@Z@4HA 000000018000ca2c f   main.obj
 0001:0000ba38       ?catch$0@?0???$?6U?$char_traits@D@std@@@std@@YAAEAV?$basic_ostream@DU?$char_traits@D@std@@@0@AEAV10@D@Z@4HA 000000018000ca38 f   main.obj
 0001:0000ba45       __catch$??$?6U?$char_traits@D@std@@@std@@YAAEAV?$basic_ostream@DU?$char_traits@D@std@@@0@AEAV10@D@Z$0 000000018000ca45 f   main.obj
 0001:0000ba70       ?dtor$0@?0???0CountArray@dis@@QEAA@H@Z@4HA 000000018000ca70 f   deformableDiversity.obj
 0001:0000ba7c       ?dtor$1@?0???0CountArray@dis@@QEAA@H@Z@4HA 000000018000ca7c f   deformableDiversity.obj
 0001:0000ba90       ?dtor$0@?0???0DeformableDiversityWeightArray@dis@@QEAA@HN@Z@4HA 000000018000ca90 f   deformableDiversity.obj
 0001:0000ba9c       ?dtor$1@?0???0DeformableDiversityWeightArray@dis@@QEAA@HN@Z@4HA 000000018000ca9c f   deformableDiversity.obj
 0001:0000baac       ?dtor$2@?0???0DeformableDiversityWeightArray@dis@@QEAA@HN@Z@4HA 000000018000caac f   deformableDiversity.obj
 0001:0000bac0       ?dtor$0@?0??CalcDDISRasterScan@@YAXV?$Mat@H@dis@@HHAEBV?$Map@V?$Matrix@H$0?0$0?0$0A@$0?0$0?0@Eigen@@$0A@V?$Stride@$0A@$0A@@2@@Eigen@@NAEAV?$Mat@M@2@HHPEAH@Z@4HA 000000018000cac0 f   deformableDiversity.obj
 0001:0000bacc       ?dtor$6@?0??CalcDDISRasterScan@@YAXV?$Mat@H@dis@@HHAEBV?$Map@V?$Matrix@H$0?0$0?0$0A@$0?0$0?0@Eigen@@$0A@V?$Stride@$0A@$0A@@2@@Eigen@@NAEAV?$Mat@M@2@HHPEAH@Z@4HA 000000018000cacc f   deformableDiversity.obj
 0001:0000bad8       ?dtor$9@?0??CalcDDISRasterScan@@YAXV?$Mat@H@dis@@HHAEBV?$Map@V?$Matrix@H$0?0$0?0$0A@$0?0$0?0@Eigen@@$0A@V?$Stride@$0A@$0A@@2@@Eigen@@NAEAV?$Mat@M@2@HHPEAH@Z@4HA 000000018000cad8 f   deformableDiversity.obj
 0001:0000bae4       ?dtor$12@?0??CalcDDISRasterScan@@YAXV?$Mat@H@dis@@HHAEBV?$Map@V?$Matrix@H$0?0$0?0$0A@$0?0$0?0@Eigen@@$0A@V?$Stride@$0A@$0A@@2@@Eigen@@NAEAV?$Mat@M@2@HHPEAH@Z@4HA 000000018000cae4 f   deformableDiversity.obj
 0001:0000baf0       ?dtor$15@?0??CalcDDISRasterScan@@YAXV?$Mat@H@dis@@HHAEBV?$Map@V?$Matrix@H$0?0$0?0$0A@$0?0$0?0@Eigen@@$0A@V?$Stride@$0A@$0A@@2@@Eigen@@NAEAV?$Mat@M@2@HHPEAH@Z@4HA 000000018000caf0 f   deformableDiversity.obj
 0001:0000bafc       ?dtor$18@?0??CalcDDISRasterScan@@YAXV?$Mat@H@dis@@HHAEBV?$Map@V?$Matrix@H$0?0$0?0$0A@$0?0$0?0@Eigen@@$0A@V?$Stride@$0A@$0A@@2@@Eigen@@NAEAV?$Mat@M@2@HHPEAH@Z@4HA 000000018000cafc f   deformableDiversity.obj
 0001:0000bb10       ?dtor$0@?0??LoadXyPositions@@YA?AV?$Map@V?$Matrix@H$0?0$0?0$0A@$0?0$0?0@Eigen@@$0A@V?$Stride@$0A@$0A@@2@@Eigen@@PEAPEBUmxArray_tag@@@Z@4HA 000000018000cb10 f   deformableDiversity.obj
 0001:0000bb20       ?dtor$1@?0??DeformableDiversity@dis@@YAXPEAPEAUmxArray_tag@@HPEAPEBU2@I@Z@4HA 000000018000cb20 f   deformableDiversity.obj
 0001:0000bb2c       ?dtor$2@?0??DeformableDiversity@dis@@YAXPEAPEAUmxArray_tag@@HPEAPEBU2@I@Z@4HA 000000018000cb2c f   deformableDiversity.obj
 0001:0000bb38       ?dtor$4@?0??DeformableDiversity@dis@@YAXPEAPEAUmxArray_tag@@HPEAPEBU2@I@Z@4HA 000000018000cb38 f   deformableDiversity.obj
 0001:0000bb44       ?dtor$3@?0??DeformableDiversity@dis@@YAXPEAPEAUmxArray_tag@@HPEAPEBU2@I@Z@4HA 000000018000cb44 f   deformableDiversity.obj
 0001:0000bb50       ?dtor$1@?0??eval@?$DenseBase@V?$Transpose@V?$Map@V?$Matrix@H$0?0$0?0$0A@$0?0$0?0@Eigen@@$0A@V?$Stride@$0A@$0A@@2@@Eigen@@@Eigen@@@Eigen@@QEBA?BV?$Matrix@H$0?0$0?0$00$0?0$0?0@2@XZ@4HA 000000018000cb50 f   deformableDiversity.obj
 0001:0000bb60       ?dtor$1@?0???__EClassIDOf@?A0x6487b33d@@YAXXZ@4HA 000000018000cb60 f   mex_opencv_2.4:MxArray.obj
 0001:0000bb60       ?dtor$1@?0???__EDepthOf@?A0x6487b33d@@YAXXZ@4HA 000000018000cb60 f   mex_opencv_2.4:MxArray.obj
 0001:0000bb6c       ?dtor$0@?0???__EDepthOf@?A0x6487b33d@@YAXXZ@4HA 000000018000cb6c f   mex_opencv_2.4:MxArray.obj
 0001:0000bb6c       ?dtor$0@?0???__EClassIDOf@?A0x6487b33d@@YAXXZ@4HA 000000018000cb6c f   mex_opencv_2.4:MxArray.obj
 0001:0000bb80       ?dtor$0@?0???__EInvTermCritType@?A0x6487b33d@@YAXXZ@4HA 000000018000cb80 f   mex_opencv_2.4:MxArray.obj
 0001:0000bb8c       ?dtor$1@?0???__EInvTermCritType@?A0x6487b33d@@YAXXZ@4HA 000000018000cb8c f   mex_opencv_2.4:MxArray.obj
 0001:0000bb98       ?dtor$2@?0???__EInvTermCritType@?A0x6487b33d@@YAXXZ@4HA 000000018000cb98 f   mex_opencv_2.4:MxArray.obj
 0001:0000bba4       ?dtor$4@?0???__EInvTermCritType@?A0x6487b33d@@YAXXZ@4HA 000000018000cba4 f   mex_opencv_2.4:MxArray.obj
 0001:0000bbb0       ?dtor$3@?0???__EInvTermCritType@?A0x6487b33d@@YAXXZ@4HA 000000018000cbb0 f   mex_opencv_2.4:MxArray.obj
 0001:0000bbc0       ?dtor$0@?0???__ETermCritType@?A0x6487b33d@@YAXXZ@4HA 000000018000cbc0 f   mex_opencv_2.4:MxArray.obj
 0001:0000bbcc       ?dtor$1@?0???__ETermCritType@?A0x6487b33d@@YAXXZ@4HA 000000018000cbcc f   mex_opencv_2.4:MxArray.obj
 0001:0000bbd8       ?dtor$2@?0???__ETermCritType@?A0x6487b33d@@YAXXZ@4HA 000000018000cbd8 f   mex_opencv_2.4:MxArray.obj
 0001:0000bbe4       ?dtor$4@?0???__ETermCritType@?A0x6487b33d@@YAXXZ@4HA 000000018000cbe4 f   mex_opencv_2.4:MxArray.obj
 0001:0000bbf0       ?dtor$3@?0???__ETermCritType@?A0x6487b33d@@YAXXZ@4HA 000000018000cbf0 f   mex_opencv_2.4:MxArray.obj
 0001:0000bc00       ?dtor$0@?0???0?$_Tree@V?$_Tmap_traits@V?$basic_string@DU?$char_traits@D@std@@V?$allocator@D@2@@std@@HU?$less@V?$basic_string@DU?$char_traits@D@std@@V?$allocator@D@2@@std@@@2@V?$allocator@U?$pair@$$CBV?$basic_string@DU?$char_traits@D@std@@V?$allocator@D@2@@std@@H@std@@@2@$0A@@std@@@std@@QEAA@AEBV01@AEBV?$allocator@U?$pair@$$CBV?$basic_string@DU?$char_traits@D@std@@V?$allocator@D@2@@std@@H@std@@@1@@Z@4HA 000000018000cc00 f   mex_opencv_2.4:MxArray.obj
 0001:0000bc0c       ?catch$0@?0???0?$_Tree@V?$_Tmap_traits@V?$basic_string@DU?$char_traits@D@std@@V?$allocator@D@2@@std@@HU?$less@V?$basic_string@DU?$char_traits@D@std@@V?$allocator@D@2@@std@@@2@V?$allocator@U?$pair@$$CBV?$basic_string@DU?$char_traits@D@std@@V?$allocator@D@2@@std@@H@std@@@2@$0A@@std@@@std@@QEAA@AEBV01@AEBV?$allocator@U?$pair@$$CBV?$basic_string@DU?$char_traits@D@std@@V?$allocator@D@2@@std@@H@std@@@1@@Z@4HA 000000018000cc0c f   mex_opencv_2.4:MxArray.obj
 0001:0000bc19       __catch$??0?$_Tree@V?$_Tmap_traits@V?$basic_string@DU?$char_traits@D@std@@V?$allocator@D@2@@std@@HU?$less@V?$basic_string@DU?$char_traits@D@std@@V?$allocator@D@2@@std@@@2@V?$allocator@U?$pair@$$CBV?$basic_string@DU?$char_traits@D@std@@V?$allocator@D@2@@std@@H@std@@@2@$0A@@std@@@std@@QEAA@AEBV01@AEBV?$allocator@U?$pair@$$CBV?$basic_string@DU?$char_traits@D@std@@V?$allocator@D@2@@std@@H@std@@@1@@Z$0 000000018000cc19 f   mex_opencv_2.4:MxArray.obj
 0001:0000bc40       ?dtor$0@?0???0?$_Tree@V?$_Tmap_traits@W4mxClassID@@HU?$less@W4mxClassID@@@std@@V?$allocator@U?$pair@$$CBW4mxClassID@@H@std@@@3@$0A@@std@@@std@@QEAA@AEBV01@AEBV?$allocator@U?$pair@$$CBW4mxClassID@@H@std@@@1@@Z@4HA 000000018000cc40 f   mex_opencv_2.4:MxArray.obj
 0001:0000bc4c       ?catch$0@?0???0?$_Tree@V?$_Tmap_traits@W4mxClassID@@HU?$less@W4mxClassID@@@std@@V?$allocator@U?$pair@$$CBW4mxClassID@@H@std@@@3@$0A@@std@@@std@@QEAA@AEBV01@AEBV?$allocator@U?$pair@$$CBW4mxClassID@@H@std@@@1@@Z@4HA 000000018000cc4c f   mex_opencv_2.4:MxArray.obj
 0001:0000bc59       __catch$??0?$_Tree@V?$_Tmap_traits@W4mxClassID@@HU?$less@W4mxClassID@@@std@@V?$allocator@U?$pair@$$CBW4mxClassID@@H@std@@@3@$0A@@std@@@std@@QEAA@AEBV01@AEBV?$allocator@U?$pair@$$CBW4mxClassID@@H@std@@@1@@Z$0 000000018000cc59 f   mex_opencv_2.4:MxArray.obj
 0001:0000bc80       ?dtor$0@?0???0?$_Tree@V?$_Tmap_traits@HW4mxClassID@@U?$less@H@std@@V?$allocator@U?$pair@$$CBHW4mxClassID@@@std@@@3@$0A@@std@@@std@@QEAA@AEBV01@AEBV?$allocator@U?$pair@$$CBHW4mxClassID@@@std@@@1@@Z@4HA 000000018000cc80 f   mex_opencv_2.4:MxArray.obj
 0001:0000bc8c       ?catch$0@?0???0?$_Tree@V?$_Tmap_traits@HW4mxClassID@@U?$less@H@std@@V?$allocator@U?$pair@$$CBHW4mxClassID@@@std@@@3@$0A@@std@@@std@@QEAA@AEBV01@AEBV?$allocator@U?$pair@$$CBHW4mxClassID@@@std@@@1@@Z@4HA 000000018000cc8c f   mex_opencv_2.4:MxArray.obj
 0001:0000bc99       __catch$??0?$_Tree@V?$_Tmap_traits@HW4mxClassID@@U?$less@H@std@@V?$allocator@U?$pair@$$CBHW4mxClassID@@@std@@@3@$0A@@std@@@std@@QEAA@AEBV01@AEBV?$allocator@U?$pair@$$CBHW4mxClassID@@@std@@@1@@Z$0 000000018000cc99 f   mex_opencv_2.4:MxArray.obj
 0001:0000bcc0       ?dtor$0@?0???0?$_Tree@V?$_Tmap_traits@HV?$basic_string@DU?$char_traits@D@std@@V?$allocator@D@2@@std@@U?$less@H@2@V?$allocator@U?$pair@$$CBHV?$basic_string@DU?$char_traits@D@std@@V?$allocator@D@2@@std@@@std@@@2@$0A@@std@@@std@@QEAA@AEBV01@AEBV?$allocator@U?$pair@$$CBHV?$basic_string@DU?$char_traits@D@std@@V?$allocator@D@2@@std@@@std@@@1@@Z@4HA 000000018000ccc0 f   mex_opencv_2.4:MxArray.obj
 0001:0000bccc       ?catch$0@?0???0?$_Tree@V?$_Tmap_traits@HV?$basic_string@DU?$char_traits@D@std@@V?$allocator@D@2@@std@@U?$less@H@2@V?$allocator@U?$pair@$$CBHV?$basic_string@DU?$char_traits@D@std@@V?$allocator@D@2@@std@@@std@@@2@$0A@@std@@@std@@QEAA@AEBV01@AEBV?$allocator@U?$pair@$$CBHV?$basic_string@DU?$char_traits@D@std@@V?$allocator@D@2@@std@@@std@@@1@@Z@4HA 000000018000cccc f   mex_opencv_2.4:MxArray.obj
 0001:0000bcd9       __catch$??0?$_Tree@V?$_Tmap_traits@HV?$basic_string@DU?$char_traits@D@std@@V?$allocator@D@2@@std@@U?$less@H@2@V?$allocator@U?$pair@$$CBHV?$basic_string@DU?$char_traits@D@std@@V?$allocator@D@2@@std@@@std@@@2@$0A@@std@@@std@@QEAA@AEBV01@AEBV?$allocator@U?$pair@$$CBHV?$basic_string@DU?$char_traits@D@std@@V?$allocator@D@2@@std@@@std@@@1@@Z$0 000000018000ccd9 f   mex_opencv_2.4:MxArray.obj
 0001:0000bd00       ?dtor$0@?0???$_Buynode@AEBUpiecewise_construct_t@std@@V?$tuple@AEBV?$basic_string@DU?$char_traits@D@std@@V?$allocator@D@2@@std@@@2@V?$tuple@$$$V@2@@?$_Tree_buy@U?$pair@$$CBV?$basic_string@DU?$char_traits@D@std@@V?$allocator@D@2@@std@@H@std@@V?$allocator@U?$pair@$$CBV?$basic_string@DU?$char_traits@D@std@@V?$allocator@D@2@@std@@H@std@@@2@@std@@QEAAPEAU?$_Tree_node@U?$pair@$$CBV?$basic_string@DU?$char_traits@D@std@@V?$allocator@D@2@@std@@H@std@@PEAX@1@AEBUpiecewise_construct_t@1@$$QEAV?$tuple@AEBV?$basic_string@DU?$char_traits@D@std@@V?$allocator@D@2@@std@@@1@$$QEAV?$tuple@$$$V@1@@Z@4HA 000000018000cd00 f   mex_opencv_2.4:MxArray.obj
 0001:0000bd1c       ?catch$0@?0???$_Buynode@AEBUpiecewise_construct_t@std@@V?$tuple@AEBV?$basic_string@DU?$char_traits@D@std@@V?$allocator@D@2@@std@@@2@V?$tuple@$$$V@2@@?$_Tree_buy@U?$pair@$$CBV?$basic_string@DU?$char_traits@D@std@@V?$allocator@D@2@@std@@H@std@@V?$allocator@U?$pair@$$CBV?$basic_string@DU?$char_traits@D@std@@V?$allocator@D@2@@std@@H@std@@@2@@std@@QEAAPEAU?$_Tree_node@U?$pair@$$CBV?$basic_string@DU?$char_traits@D@std@@V?$allocator@D@2@@std@@H@std@@PEAX@1@AEBUpiecewise_construct_t@1@$$QEAV?$tuple@AEBV?$basic_string@DU?$char_traits@D@std@@V?$allocator@D@2@@std@@@1@$$QEAV?$tuple@$$$V@1@@Z@4HA 000000018000cd1c f   mex_opencv_2.4:MxArray.obj
 0001:0000bd29       __catch$??$_Buynode@AEBUpiecewise_construct_t@std@@V?$tuple@AEBV?$basic_string@DU?$char_traits@D@std@@V?$allocator@D@2@@std@@@2@V?$tuple@$$$V@2@@?$_Tree_buy@U?$pair@$$CBV?$basic_string@DU?$char_traits@D@std@@V?$allocator@D@2@@std@@H@std@@V?$allocator@U?$pair@$$CBV?$basic_string@DU?$char_traits@D@std@@V?$allocator@D@2@@std@@H@std@@@2@@std@@QEAAPEAU?$_Tree_node@U?$pair@$$CBV?$basic_string@DU?$char_traits@D@std@@V?$allocator@D@2@@std@@H@std@@PEAX@1@AEBUpiecewise_construct_t@1@$$QEAV?$tuple@AEBV?$basic_string@DU?$char_traits@D@std@@V?$allocator@D@2@@std@@@1@$$QEAV?$tuple@$$$V@1@@Z$0 000000018000cd29 f   mex_opencv_2.4:MxArray.obj
 0001:0000bd40       ?catch$0@?0???$_Insert_hint@AEAU?$pair@$$CBV?$basic_string@DU?$char_traits@D@std@@V?$allocator@D@2@@std@@H@std@@PEAU?$_Tree_node@U?$pair@$$CBV?$basic_string@DU?$char_traits@D@std@@V?$allocator@D@2@@std@@H@std@@PEAX@2@@?$_Tree@V?$_Tmap_traits@V?$basic_string@DU?$char_traits@D@std@@V?$allocator@D@2@@std@@HU?$less@V?$basic_string@DU?$char_traits@D@std@@V?$allocator@D@2@@std@@@2@V?$allocator@U?$pair@$$CBV?$basic_string@DU?$char_traits@D@std@@V?$allocator@D@2@@std@@H@std@@@2@$0A@@std@@@std@@IEAA?AV?$_Tree_iterator@V?$_Tree_val@U?$_Tree_simple_types@U?$pair@$$CBV?$basic_string@DU?$char_traits@D@std@@V?$allocator@D@2@@std@@H@std@@@std@@@std@@@1@V?$_Tree_const_iterator@V?$_Tree_val@U?$_Tree_simple_types@U?$pair@$$CBV?$basic_string@DU?$char_traits@D@std@@V?$allocator@D@2@@std@@H@std@@@std@@@std@@@1@AEAU?$pair@$$CBV?$basic_string@DU?$char_traits@D@std@@V?$allocator@D@2@@std@@H@1@PEAU?$_Tree_node@U?$pair@$$CBV?$basic_string@DU?$char_traits@D@std@@V?$allocator@D@2@@std@@H@std@@PEAX@1@@Z@4HA 000000018000cd40 f   mex_opencv_2.4:MxArray.obj
 0001:0000bd4d       __catch$??$_Insert_hint@AEAU?$pair@$$CBV?$basic_string@DU?$char_traits@D@std@@V?$allocator@D@2@@std@@H@std@@PEAU?$_Tree_node@U?$pair@$$CBV?$basic_string@DU?$char_traits@D@std@@V?$allocator@D@2@@std@@H@std@@PEAX@2@@?$_Tree@V?$_Tmap_traits@V?$basic_string@DU?$char_traits@D@std@@V?$allocator@D@2@@std@@HU?$less@V?$basic_string@DU?$char_traits@D@std@@V?$allocator@D@2@@std@@@2@V?$allocator@U?$pair@$$CBV?$basic_string@DU?$char_traits@D@std@@V?$allocator@D@2@@std@@H@std@@@2@$0A@@std@@@std@@IEAA?AV?$_Tree_iterator@V?$_Tree_val@U?$_Tree_simple_types@U?$pair@$$CBV?$basic_string@DU?$char_traits@D@std@@V?$allocator@D@2@@std@@H@std@@@std@@@std@@@1@V?$_Tree_const_iterator@V?$_Tree_val@U?$_Tree_simple_types@U?$pair@$$CBV?$basic_string@DU?$char_traits@D@std@@V?$allocator@D@2@@std@@H@std@@@std@@@std@@@1@AEAU?$pair@$$CBV?$basic_string@DU?$char_traits@D@std@@V?$allocator@D@2@@std@@H@1@PEAU?$_Tree_node@U?$pair@$$CBV?$basic_string@DU?$char_traits@D@std@@V?$allocator@D@2@@std@@H@std@@PEAX@1@@Z$0 000000018000cd4d f   mex_opencv_2.4:MxArray.obj
 0001:0000bd60       ?catch$0@?0???$_Copy_nodes@U?$integral_constant@_N$0A@@std@@@?$_Tree@V?$_Tmap_traits@V?$basic_string@DU?$char_traits@D@std@@V?$allocator@D@2@@std@@HU?$less@V?$basic_string@DU?$char_traits@D@std@@V?$allocator@D@2@@std@@@2@V?$allocator@U?$pair@$$CBV?$basic_string@DU?$char_traits@D@std@@V?$allocator@D@2@@std@@H@std@@@2@$0A@@std@@@std@@IEAAPEAU?$_Tree_node@U?$pair@$$CBV?$basic_string@DU?$char_traits@D@std@@V?$allocator@D@2@@std@@H@std@@PEAX@1@PEAU21@0U?$integral_constant@_N$0A@@1@@Z@4HA 000000018000cd60 f   mex_opencv_2.4:MxArray.obj
 0001:0000bd6d       __catch$??$_Copy_nodes@U?$integral_constant@_N$0A@@std@@@?$_Tree@V?$_Tmap_traits@V?$basic_string@DU?$char_traits@D@std@@V?$allocator@D@2@@std@@HU?$less@V?$basic_string@DU?$char_traits@D@std@@V?$allocator@D@2@@std@@@2@V?$allocator@U?$pair@$$CBV?$basic_string@DU?$char_traits@D@std@@V?$allocator@D@2@@std@@H@std@@@2@$0A@@std@@@std@@IEAAPEAU?$_Tree_node@U?$pair@$$CBV?$basic_string@DU?$char_traits@D@std@@V?$allocator@D@2@@std@@H@std@@PEAX@1@PEAU21@0U?$integral_constant@_N$0A@@1@@Z$0 000000018000cd6d f   mex_opencv_2.4:MxArray.obj
 0001:0000bd90       ?catch$0@?0???$_Insert_hint@AEAU?$pair@$$CBHW4mxClassID@@@std@@PEAU?$_Tree_node@U?$pair@$$CBHW4mxClassID@@@std@@PEAX@2@@?$_Tree@V?$_Tmap_traits@HW4mxClassID@@U?$less@H@std@@V?$allocator@U?$pair@$$CBHW4mxClassID@@@std@@@3@$0A@@std@@@std@@IEAA?AV?$_Tree_iterator@V?$_Tree_val@U?$_Tree_simple_types@U?$pair@$$CBHW4mxClassID@@@std@@@std@@@std@@@1@V?$_Tree_const_iterator@V?$_Tree_val@U?$_Tree_simple_types@U?$pair@$$CBHW4mxClassID@@@std@@@std@@@std@@@1@AEAU?$pair@$$CBHW4mxClassID@@@1@PEAU?$_Tree_node@U?$pair@$$CBHW4mxClassID@@@std@@PEAX@1@@Z@4HA 000000018000cd90 f   mex_opencv_2.4:MxArray.obj
 0001:0000bd90       ?catch$0@?0???$_Insert_hint@AEAU?$pair@$$CBW4mxClassID@@H@std@@PEAU?$_Tree_node@U?$pair@$$CBW4mxClassID@@H@std@@PEAX@2@@?$_Tree@V?$_Tmap_traits@W4mxClassID@@HU?$less@W4mxClassID@@@std@@V?$allocator@U?$pair@$$CBW4mxClassID@@H@std@@@3@$0A@@std@@@std@@IEAA?AV?$_Tree_iterator@V?$_Tree_val@U?$_Tree_simple_types@U?$pair@$$CBW4mxClassID@@H@std@@@std@@@std@@@1@V?$_Tree_const_iterator@V?$_Tree_val@U?$_Tree_simple_types@U?$pair@$$CBW4mxClassID@@H@std@@@std@@@std@@@1@AEAU?$pair@$$CBW4mxClassID@@H@1@PEAU?$_Tree_node@U?$pair@$$CBW4mxClassID@@H@std@@PEAX@1@@Z@4HA 000000018000cd90 f   mex_opencv_2.4:MxArray.obj
 0001:0000bd9d       __catch$??$_Insert_hint@AEAU?$pair@$$CBW4mxClassID@@H@std@@PEAU?$_Tree_node@U?$pair@$$CBW4mxClassID@@H@std@@PEAX@2@@?$_Tree@V?$_Tmap_traits@W4mxClassID@@HU?$less@W4mxClassID@@@std@@V?$allocator@U?$pair@$$CBW4mxClassID@@H@std@@@3@$0A@@std@@@std@@IEAA?AV?$_Tree_iterator@V?$_Tree_val@U?$_Tree_simple_types@U?$pair@$$CBW4mxClassID@@H@std@@@std@@@std@@@1@V?$_Tree_const_iterator@V?$_Tree_val@U?$_Tree_simple_types@U?$pair@$$CBW4mxClassID@@H@std@@@std@@@std@@@1@AEAU?$pair@$$CBW4mxClassID@@H@1@PEAU?$_Tree_node@U?$pair@$$CBW4mxClassID@@H@std@@PEAX@1@@Z$0 000000018000cd9d f   mex_opencv_2.4:MxArray.obj
 0001:0000bd9d       __catch$??$_Insert_hint@AEAU?$pair@$$CBHW4mxClassID@@@std@@PEAU?$_Tree_node@U?$pair@$$CBHW4mxClassID@@@std@@PEAX@2@@?$_Tree@V?$_Tmap_traits@HW4mxClassID@@U?$less@H@std@@V?$allocator@U?$pair@$$CBHW4mxClassID@@@std@@@3@$0A@@std@@@std@@IEAA?AV?$_Tree_iterator@V?$_Tree_val@U?$_Tree_simple_types@U?$pair@$$CBHW4mxClassID@@@std@@@std@@@std@@@1@V?$_Tree_const_iterator@V?$_Tree_val@U?$_Tree_simple_types@U?$pair@$$CBHW4mxClassID@@@std@@@std@@@std@@@1@AEAU?$pair@$$CBHW4mxClassID@@@1@PEAU?$_Tree_node@U?$pair@$$CBHW4mxClassID@@@std@@PEAX@1@@Z$0 000000018000cd9d f   mex_opencv_2.4:MxArray.obj
 0001:0000bdc0       ?catch$0@?0???$_Copy_nodes@U?$integral_constant@_N$0A@@std@@@?$_Tree@V?$_Tmap_traits@HW4mxClassID@@U?$less@H@std@@V?$allocator@U?$pair@$$CBHW4mxClassID@@@std@@@3@$0A@@std@@@std@@IEAAPEAU?$_Tree_node@U?$pair@$$CBHW4mxClassID@@@std@@PEAX@1@PEAU21@0U?$integral_constant@_N$0A@@1@@Z@4HA 000000018000cdc0 f   mex_opencv_2.4:MxArray.obj
 0001:0000bdc0       ?catch$0@?0???$_Copy_nodes@U?$integral_constant@_N$0A@@std@@@?$_Tree@V?$_Tmap_traits@W4mxClassID@@HU?$less@W4mxClassID@@@std@@V?$allocator@U?$pair@$$CBW4mxClassID@@H@std@@@3@$0A@@std@@@std@@IEAAPEAU?$_Tree_node@U?$pair@$$CBW4mxClassID@@H@std@@PEAX@1@PEAU21@0U?$integral_constant@_N$0A@@1@@Z@4HA 000000018000cdc0 f   mex_opencv_2.4:MxArray.obj
 0001:0000bdd0       __catch$??$_Copy_nodes@U?$integral_constant@_N$0A@@std@@@?$_Tree@V?$_Tmap_traits@W4mxClassID@@HU?$less@W4mxClassID@@@std@@V?$allocator@U?$pair@$$CBW4mxClassID@@H@std@@@3@$0A@@std@@@std@@IEAAPEAU?$_Tree_node@U?$pair@$$CBW4mxClassID@@H@std@@PEAX@1@PEAU21@0U?$integral_constant@_N$0A@@1@@Z$0 000000018000cdd0 f   mex_opencv_2.4:MxArray.obj
 0001:0000bdd0       __catch$??$_Copy_nodes@U?$integral_constant@_N$0A@@std@@@?$_Tree@V?$_Tmap_traits@HW4mxClassID@@U?$less@H@std@@V?$allocator@U?$pair@$$CBHW4mxClassID@@@std@@@3@$0A@@std@@@std@@IEAAPEAU?$_Tree_node@U?$pair@$$CBHW4mxClassID@@@std@@PEAX@1@PEAU21@0U?$integral_constant@_N$0A@@1@@Z$0 000000018000cdd0 f   mex_opencv_2.4:MxArray.obj
 0001:0000be10       ?catch$0@?0???$_Insert_hint@AEAU?$pair@$$CBHV?$basic_string@DU?$char_traits@D@std@@V?$allocator@D@2@@std@@@std@@PEAU?$_Tree_node@U?$pair@$$CBHV?$basic_string@DU?$char_traits@D@std@@V?$allocator@D@2@@std@@@std@@PEAX@2@@?$_Tree@V?$_Tmap_traits@HV?$basic_string@DU?$char_traits@D@std@@V?$allocator@D@2@@std@@U?$less@H@2@V?$allocator@U?$pair@$$CBHV?$basic_string@DU?$char_traits@D@std@@V?$allocator@D@2@@std@@@std@@@2@$0A@@std@@@std@@IEAA?AV?$_Tree_iterator@V?$_Tree_val@U?$_Tree_simple_types@U?$pair@$$CBHV?$basic_string@DU?$char_traits@D@std@@V?$allocator@D@2@@std@@@std@@@std@@@std@@@1@V?$_Tree_const_iterator@V?$_Tree_val@U?$_Tree_simple_types@U?$pair@$$CBHV?$basic_string@DU?$char_traits@D@std@@V?$allocator@D@2@@std@@@std@@@std@@@std@@@1@AEAU?$pair@$$CBHV?$basic_string@DU?$char_traits@D@std@@V?$allocator@D@2@@std@@@1@PEAU?$_Tree_node@U?$pair@$$CBHV?$basic_string@DU?$char_traits@D@std@@V?$allocator@D@2@@std@@@std@@PEAX@1@@Z@4HA 000000018000ce10 f   mex_opencv_2.4:MxArray.obj
 0001:0000be1d       __catch$??$_Insert_hint@AEAU?$pair@$$CBHV?$basic_string@DU?$char_traits@D@std@@V?$allocator@D@2@@std@@@std@@PEAU?$_Tree_node@U?$pair@$$CBHV?$basic_string@DU?$char_traits@D@std@@V?$allocator@D@2@@std@@@std@@PEAX@2@@?$_Tree@V?$_Tmap_traits@HV?$basic_string@DU?$char_traits@D@std@@V?$allocator@D@2@@std@@U?$less@H@2@V?$allocator@U?$pair@$$CBHV?$basic_string@DU?$char_traits@D@std@@V?$allocator@D@2@@std@@@std@@@2@$0A@@std@@@std@@IEAA?AV?$_Tree_iterator@V?$_Tree_val@U?$_Tree_simple_types@U?$pair@$$CBHV?$basic_string@DU?$char_traits@D@std@@V?$allocator@D@2@@std@@@std@@@std@@@std@@@1@V?$_Tree_const_iterator@V?$_Tree_val@U?$_Tree_simple_types@U?$pair@$$CBHV?$basic_string@DU?$char_traits@D@std@@V?$allocator@D@2@@std@@@std@@@std@@@std@@@1@AEAU?$pair@$$CBHV?$basic_string@DU?$char_traits@D@std@@V?$allocator@D@2@@std@@@1@PEAU?$_Tree_node@U?$pair@$$CBHV?$basic_string@DU?$char_traits@D@std@@V?$allocator@D@2@@std@@@std@@PEAX@1@@Z$0 000000018000ce1d f   mex_opencv_2.4:MxArray.obj
 0001:0000be30       ?catch$0@?0???$_Copy_nodes@U?$integral_constant@_N$0A@@std@@@?$_Tree@V?$_Tmap_traits@HV?$basic_string@DU?$char_traits@D@std@@V?$allocator@D@2@@std@@U?$less@H@2@V?$allocator@U?$pair@$$CBHV?$basic_string@DU?$char_traits@D@std@@V?$allocator@D@2@@std@@@std@@@2@$0A@@std@@@std@@IEAAPEAU?$_Tree_node@U?$pair@$$CBHV?$basic_string@DU?$char_traits@D@std@@V?$allocator@D@2@@std@@@std@@PEAX@1@PEAU21@0U?$integral_constant@_N$0A@@1@@Z@4HA 000000018000ce30 f   mex_opencv_2.4:MxArray.obj
 0001:0000be3d       __catch$??$_Copy_nodes@U?$integral_constant@_N$0A@@std@@@?$_Tree@V?$_Tmap_traits@HV?$basic_string@DU?$char_traits@D@std@@V?$allocator@D@2@@std@@U?$less@H@2@V?$allocator@U?$pair@$$CBHV?$basic_string@DU?$char_traits@D@std@@V?$allocator@D@2@@std@@@std@@@2@$0A@@std@@@std@@IEAAPEAU?$_Tree_node@U?$pair@$$CBHV?$basic_string@DU?$char_traits@D@std@@V?$allocator@D@2@@std@@@std@@PEAX@1@PEAU21@0U?$integral_constant@_N$0A@@1@@Z$0 000000018000ce3d f   mex_opencv_2.4:MxArray.obj
 0001:0000be60       ?catch$0@?0???$_Insert_nohint@AEAU?$pair@$$CBV?$basic_string@DU?$char_traits@D@std@@V?$allocator@D@2@@std@@H@std@@PEAU?$_Tree_node@U?$pair@$$CBV?$basic_string@DU?$char_traits@D@std@@V?$allocator@D@2@@std@@H@std@@PEAX@2@@?$_Tree@V?$_Tmap_traits@V?$basic_string@DU?$char_traits@D@std@@V?$allocator@D@2@@std@@HU?$less@V?$basic_string@DU?$char_traits@D@std@@V?$allocator@D@2@@std@@@2@V?$allocator@U?$pair@$$CBV?$basic_string@DU?$char_traits@D@std@@V?$allocator@D@2@@std@@H@std@@@2@$0A@@std@@@std@@IEAA?AU?$pair@V?$_Tree_iterator@V?$_Tree_val@U?$_Tree_simple_types@U?$pair@$$CBV?$basic_string@DU?$char_traits@D@std@@V?$allocator@D@2@@std@@H@std@@@std@@@std@@@std@@_N@1@_NAEAU?$pair@$$CBV?$basic_string@DU?$char_traits@D@std@@V?$allocator@D@2@@std@@H@1@PEAU?$_Tree_node@U?$pair@$$CBV?$basic_string@DU?$char_traits@D@std@@V?$allocator@D@2@@std@@H@std@@PEAX@1@@Z@4HA 000000018000ce60 f   mex_opencv_2.4:MxArray.obj
 0001:0000be6d       __catch$??$_Insert_nohint@AEAU?$pair@$$CBV?$basic_string@DU?$char_traits@D@std@@V?$allocator@D@2@@std@@H@std@@PEAU?$_Tree_node@U?$pair@$$CBV?$basic_string@DU?$char_traits@D@std@@V?$allocator@D@2@@std@@H@std@@PEAX@2@@?$_Tree@V?$_Tmap_traits@V?$basic_string@DU?$char_traits@D@std@@V?$allocator@D@2@@std@@HU?$less@V?$basic_string@DU?$char_traits@D@std@@V?$allocator@D@2@@std@@@2@V?$allocator@U?$pair@$$CBV?$basic_string@DU?$char_traits@D@std@@V?$allocator@D@2@@std@@H@std@@@2@$0A@@std@@@std@@IEAA?AU?$pair@V?$_Tree_iterator@V?$_Tree_val@U?$_Tree_simple_types@U?$pair@$$CBV?$basic_string@DU?$char_traits@D@std@@V?$allocator@D@2@@std@@H@std@@@std@@@std@@@std@@_N@1@_NAEAU?$pair@$$CBV?$basic_string@DU?$char_traits@D@std@@V?$allocator@D@2@@std@@H@1@PEAU?$_Tree_node@U?$pair@$$CBV?$basic_string@DU?$char_traits@D@std@@V?$allocator@D@2@@std@@H@std@@PEAX@1@@Z$0 000000018000ce6d f   mex_opencv_2.4:MxArray.obj
 0001:0000be80       ?catch$0@?0???$_Insert_nohint@AEAU?$pair@$$CBW4mxClassID@@H@std@@PEAU?$_Tree_node@U?$pair@$$CBW4mxClassID@@H@std@@PEAX@2@@?$_Tree@V?$_Tmap_traits@W4mxClassID@@HU?$less@W4mxClassID@@@std@@V?$allocator@U?$pair@$$CBW4mxClassID@@H@std@@@3@$0A@@std@@@std@@IEAA?AU?$pair@V?$_Tree_iterator@V?$_Tree_val@U?$_Tree_simple_types@U?$pair@$$CBW4mxClassID@@H@std@@@std@@@std@@@std@@_N@1@_NAEAU?$pair@$$CBW4mxClassID@@H@1@PEAU?$_Tree_node@U?$pair@$$CBW4mxClassID@@H@std@@PEAX@1@@Z@4HA 000000018000ce80 f   mex_opencv_2.4:MxArray.obj
 0001:0000be80       ?catch$0@?0???$_Insert_nohint@AEAU?$pair@$$CBHW4mxClassID@@@std@@PEAU?$_Tree_node@U?$pair@$$CBHW4mxClassID@@@std@@PEAX@2@@?$_Tree@V?$_Tmap_traits@HW4mxClassID@@U?$less@H@std@@V?$allocator@U?$pair@$$CBHW4mxClassID@@@std@@@3@$0A@@std@@@std@@IEAA?AU?$pair@V?$_Tree_iterator@V?$_Tree_val@U?$_Tree_simple_types@U?$pair@$$CBHW4mxClassID@@@std@@@std@@@std@@@std@@_N@1@_NAEAU?$pair@$$CBHW4mxClassID@@@1@PEAU?$_Tree_node@U?$pair@$$CBHW4mxClassID@@@std@@PEAX@1@@Z@4HA 000000018000ce80 f   mex_opencv_2.4:MxArray.obj
 0001:0000be8d       __catch$??$_Insert_nohint@AEAU?$pair@$$CBHW4mxClassID@@@std@@PEAU?$_Tree_node@U?$pair@$$CBHW4mxClassID@@@std@@PEAX@2@@?$_Tree@V?$_Tmap_traits@HW4mxClassID@@U?$less@H@std@@V?$allocator@U?$pair@$$CBHW4mxClassID@@@std@@@3@$0A@@std@@@std@@IEAA?AU?$pair@V?$_Tree_iterator@V?$_Tree_val@U?$_Tree_simple_types@U?$pair@$$CBHW4mxClassID@@@std@@@std@@@std@@@std@@_N@1@_NAEAU?$pair@$$CBHW4mxClassID@@@1@PEAU?$_Tree_node@U?$pair@$$CBHW4mxClassID@@@std@@PEAX@1@@Z$0 000000018000ce8d f   mex_opencv_2.4:MxArray.obj
 0001:0000be8d       __catch$??$_Insert_nohint@AEAU?$pair@$$CBW4mxClassID@@H@std@@PEAU?$_Tree_node@U?$pair@$$CBW4mxClassID@@H@std@@PEAX@2@@?$_Tree@V?$_Tmap_traits@W4mxClassID@@HU?$less@W4mxClassID@@@std@@V?$allocator@U?$pair@$$CBW4mxClassID@@H@std@@@3@$0A@@std@@@std@@IEAA?AU?$pair@V?$_Tree_iterator@V?$_Tree_val@U?$_Tree_simple_types@U?$pair@$$CBW4mxClassID@@H@std@@@std@@@std@@@std@@_N@1@_NAEAU?$pair@$$CBW4mxClassID@@H@1@PEAU?$_Tree_node@U?$pair@$$CBW4mxClassID@@H@std@@PEAX@1@@Z$0 000000018000ce8d f   mex_opencv_2.4:MxArray.obj
 0001:0000beb0       ?catch$0@?0???$_Insert_nohint@AEAU?$pair@$$CBHV?$basic_string@DU?$char_traits@D@std@@V?$allocator@D@2@@std@@@std@@PEAU?$_Tree_node@U?$pair@$$CBHV?$basic_string@DU?$char_traits@D@std@@V?$allocator@D@2@@std@@@std@@PEAX@2@@?$_Tree@V?$_Tmap_traits@HV?$basic_string@DU?$char_traits@D@std@@V?$allocator@D@2@@std@@U?$less@H@2@V?$allocator@U?$pair@$$CBHV?$basic_string@DU?$char_traits@D@std@@V?$allocator@D@2@@std@@@std@@@2@$0A@@std@@@std@@IEAA?AU?$pair@V?$_Tree_iterator@V?$_Tree_val@U?$_Tree_simple_types@U?$pair@$$CBHV?$basic_string@DU?$char_traits@D@std@@V?$allocator@D@2@@std@@@std@@@std@@@std@@@std@@_N@1@_NAEAU?$pair@$$CBHV?$basic_string@DU?$char_traits@D@std@@V?$allocator@D@2@@std@@@1@PEAU?$_Tree_node@U?$pair@$$CBHV?$basic_string@DU?$char_traits@D@std@@V?$allocator@D@2@@std@@@std@@PEAX@1@@Z@4HA 000000018000ceb0 f   mex_opencv_2.4:MxArray.obj
 0001:0000bebd       __catch$??$_Insert_nohint@AEAU?$pair@$$CBHV?$basic_string@DU?$char_traits@D@std@@V?$allocator@D@2@@std@@@std@@PEAU?$_Tree_node@U?$pair@$$CBHV?$basic_string@DU?$char_traits@D@std@@V?$allocator@D@2@@std@@@std@@PEAX@2@@?$_Tree@V?$_Tmap_traits@HV?$basic_string@DU?$char_traits@D@std@@V?$allocator@D@2@@std@@U?$less@H@2@V?$allocator@U?$pair@$$CBHV?$basic_string@DU?$char_traits@D@std@@V?$allocator@D@2@@std@@@std@@@2@$0A@@std@@@std@@IEAA?AU?$pair@V?$_Tree_iterator@V?$_Tree_val@U?$_Tree_simple_types@U?$pair@$$CBHV?$basic_string@DU?$char_traits@D@std@@V?$allocator@D@2@@std@@@std@@@std@@@std@@@std@@_N@1@_NAEAU?$pair@$$CBHV?$basic_string@DU?$char_traits@D@std@@V?$allocator@D@2@@std@@@1@PEAU?$_Tree_node@U?$pair@$$CBHV?$basic_string@DU?$char_traits@D@std@@V?$allocator@D@2@@std@@@std@@PEAX@1@@Z$0 000000018000cebd f   mex_opencv_2.4:MxArray.obj
 0001:0000bed0       ?dtor$0@?0???$_Buynode@AEAU?$pair@$$CBV?$basic_string@DU?$char_traits@D@std@@V?$allocator@D@2@@std@@H@std@@@?$_Tree_buy@U?$pair@$$CBV?$basic_string@DU?$char_traits@D@std@@V?$allocator@D@2@@std@@H@std@@V?$allocator@U?$pair@$$CBV?$basic_string@DU?$char_traits@D@std@@V?$allocator@D@2@@std@@H@std@@@2@@std@@QEAAPEAU?$_Tree_node@U?$pair@$$CBV?$basic_string@DU?$char_traits@D@std@@V?$allocator@D@2@@std@@H@std@@PEAX@1@AEAU?$pair@$$CBV?$basic_string@DU?$char_traits@D@std@@V?$allocator@D@2@@std@@H@1@@Z@4HA 000000018000ced0 f   mex_opencv_2.4:MxArray.obj
 0001:0000beec       ?catch$0@?0???$_Buynode@AEAU?$pair@$$CBV?$basic_string@DU?$char_traits@D@std@@V?$allocator@D@2@@std@@H@std@@@?$_Tree_buy@U?$pair@$$CBV?$basic_string@DU?$char_traits@D@std@@V?$allocator@D@2@@std@@H@std@@V?$allocator@U?$pair@$$CBV?$basic_string@DU?$char_traits@D@std@@V?$allocator@D@2@@std@@H@std@@@2@@std@@QEAAPEAU?$_Tree_node@U?$pair@$$CBV?$basic_string@DU?$char_traits@D@std@@V?$allocator@D@2@@std@@H@std@@PEAX@1@AEAU?$pair@$$CBV?$basic_string@DU?$char_traits@D@std@@V?$allocator@D@2@@std@@H@1@@Z@4HA 000000018000ceec f   mex_opencv_2.4:MxArray.obj
 0001:0000bef9       __catch$??$_Buynode@AEAU?$pair@$$CBV?$basic_string@DU?$char_traits@D@std@@V?$allocator@D@2@@std@@H@std@@@?$_Tree_buy@U?$pair@$$CBV?$basic_string@DU?$char_traits@D@std@@V?$allocator@D@2@@std@@H@std@@V?$allocator@U?$pair@$$CBV?$basic_string@DU?$char_traits@D@std@@V?$allocator@D@2@@std@@H@std@@@2@@std@@QEAAPEAU?$_Tree_node@U?$pair@$$CBV?$basic_string@DU?$char_traits@D@std@@V?$allocator@D@2@@std@@H@std@@PEAX@1@AEAU?$pair@$$CBV?$basic_string@DU?$char_traits@D@std@@V?$allocator@D@2@@std@@H@1@@Z$0 000000018000cef9 f   mex_opencv_2.4:MxArray.obj
 0001:0000bf10       ?dtor$0@?0???$_Buynode@AEAU?$pair@$$CBHV?$basic_string@DU?$char_traits@D@std@@V?$allocator@D@2@@std@@@std@@@?$_Tree_buy@U?$pair@$$CBHV?$basic_string@DU?$char_traits@D@std@@V?$allocator@D@2@@std@@@std@@V?$allocator@U?$pair@$$CBHV?$basic_string@DU?$char_traits@D@std@@V?$allocator@D@2@@std@@@std@@@2@@std@@QEAAPEAU?$_Tree_node@U?$pair@$$CBHV?$basic_string@DU?$char_traits@D@std@@V?$allocator@D@2@@std@@@std@@PEAX@1@AEAU?$pair@$$CBHV?$basic_string@DU?$char_traits@D@std@@V?$allocator@D@2@@std@@@1@@Z@4HA 000000018000cf10 f   mex_opencv_2.4:MxArray.obj
 0001:0000bf2c       ?catch$0@?0???$_Buynode@AEAU?$pair@$$CBHV?$basic_string@DU?$char_traits@D@std@@V?$allocator@D@2@@std@@@std@@@?$_Tree_buy@U?$pair@$$CBHV?$basic_string@DU?$char_traits@D@std@@V?$allocator@D@2@@std@@@std@@V?$allocator@U?$pair@$$CBHV?$basic_string@DU?$char_traits@D@std@@V?$allocator@D@2@@std@@@std@@@2@@std@@QEAAPEAU?$_Tree_node@U?$pair@$$CBHV?$basic_string@DU?$char_traits@D@std@@V?$allocator@D@2@@std@@@std@@PEAX@1@AEAU?$pair@$$CBHV?$basic_string@DU?$char_traits@D@std@@V?$allocator@D@2@@std@@@1@@Z@4HA 000000018000cf2c f   mex_opencv_2.4:MxArray.obj
 0001:0000bf39       __catch$??$_Buynode@AEAU?$pair@$$CBHV?$basic_string@DU?$char_traits@D@std@@V?$allocator@D@2@@std@@@std@@@?$_Tree_buy@U?$pair@$$CBHV?$basic_string@DU?$char_traits@D@std@@V?$allocator@D@2@@std@@@std@@V?$allocator@U?$pair@$$CBHV?$basic_string@DU?$char_traits@D@std@@V?$allocator@D@2@@std@@@std@@@2@@std@@QEAAPEAU?$_Tree_node@U?$pair@$$CBHV?$basic_string@DU?$char_traits@D@std@@V?$allocator@D@2@@std@@@std@@PEAX@1@AEAU?$pair@$$CBHV?$basic_string@DU?$char_traits@D@std@@V?$allocator@D@2@@std@@@1@@Z$0 000000018000cf39 f   mex_opencv_2.4:MxArray.obj
 0001:0000bf4d       _onexit$fin$0              000000018000cf4d f   MSVCRT:atonexit.obj
 0001:0000bf68       __DllMainCRTStartup$filt$0 000000018000cf68 f   MSVCRT:crtdll.obj
 0001:0000bf8d       __DllMainCRTStartup$fin$1  000000018000cf8d f   MSVCRT:crtdll.obj
 0001:0000bfa7       ?fin$0@?0???_M@YAXPEAX_KHP6AX0@Z@Z@4HA 000000018000cfa7 f   MSVCRT:ehvecdtr.obj
 0001:0000bfd3       ?filt$0@?0??__ArrayUnwind@@YAXPEAX_KHP6AX0@Z@Z@4HA 000000018000cfd3 f   MSVCRT:ehvecdtr.obj
 0001:0000c020       _IsNonwritableInCurrentImage$filt$0 000000018000d020 f   MSVCRT:pesect.obj
 0001:0000c040       ??__F?_System_object@?$_Error_objects@H@std@@2V_System_error_category@2@A@@YAXXZ 000000018000d040 f   diversity.obj
 0001:0000c050       ??__F?_Iostream_object@?$_Error_objects@H@std@@2V_Iostream_error_category@2@A@@YAXXZ 000000018000d050 f   diversity.obj
 0001:0000c060       ??__F?_Generic_object@?$_Error_objects@H@std@@2V_Generic_error_category@2@A@@YAXXZ 000000018000d060 f   diversity.obj
 0001:0000c070       ??__F?All@DiversityTypes@@2V?$vector@PEBDV?$allocator@PEBD@std@@@std@@A@@YAXXZ 000000018000d070 f   main.obj
 0001:0000c0c0       ??__Ftictoc_stack@@YAXXZ   000000018000d0c0 f   tictoc.obj
 0001:0000c100       ??__FDepthOf@?A0x6487b33d@@YAXXZ 000000018000d100 f   mex_opencv_2.4:MxArray.obj
 0001:0000c180       ??__FClassIDOf@?A0x6487b33d@@YAXXZ 000000018000d180 f   mex_opencv_2.4:MxArray.obj
 0001:0000c200       ??__FInvTermCritType@?A0x6487b33d@@YAXXZ 000000018000d200 f   mex_opencv_2.4:MxArray.obj
 0001:0000c280       ??__FTermCritType@?A0x6487b33d@@YAXXZ 000000018000d280 f   mex_opencv_2.4:MxArray.obj
 0002:00000368       ?_Generic_object$initializer$@?$_Error_objects@H@std@@2P6AXXZEA 000000018000e368     diversity.obj
 0002:00000370       ?_Iostream_object$initializer$@?$_Error_objects@H@std@@2P6AXXZEA 000000018000e370     diversity.obj
 0002:00000378       ?_System_object$initializer$@?$_Error_objects@H@std@@2P6AXXZEA 000000018000e378     diversity.obj
 0002:00000380       ?All$initializer$@DiversityTypes@@2P6AXXZEA 000000018000e380     main.obj
 0002:00000388       tictoc_stack$initializer$  000000018000e388     tictoc.obj
 0002:00000390       DepthOf$initializer$       000000018000e390     mex_opencv_2.4:MxArray.obj
 0002:00000398       ClassIDOf$initializer$     000000018000e398     mex_opencv_2.4:MxArray.obj
 0002:000003a0       InvTermCritType$initializer$ 000000018000e3a0     mex_opencv_2.4:MxArray.obj
 0002:000003a8       TermCritType$initializer$  000000018000e3a8     mex_opencv_2.4:MxArray.obj
 0002:000003c0       pcinit                     000000018000e3c0     MSVCRT:crtdll.obj
 0002:000003c8       pinit                      000000018000e3c8     MSVCRT:atonexit.obj
 0002:00000430       GS_ExceptionPointers       000000018000e430     MSVCRT:gs_report.obj
 0002:00001e58       $cppxdata$?_Copy@?$basic_string@DU?$char_traits@D@std@@V?$allocator@D@2@@std@@QEAAX_K0@Z 000000018000fe58     diversity.obj
 0002:00001e80       $cppxdata$?WeightedDiversityCount@dis@@YAXPEAPEAUmxArray_tag@@HPEAPEBU2@@Z 000000018000fe80     diversity.obj
 0002:00001ea8       $cppxdata$?DiversityCount@dis@@YAXPEAPEAUmxArray_tag@@HPEAPEBU2@@Z 000000018000fea8     diversity.obj
 0002:00001ed0       $cppxdata$?CalcDiversityMap@@YAXV?$Mat@H@dis@@HHV?$vector@MV?$allocator@M@std@@@std@@AEAV?$Mat@M@2@@Z 000000018000fed0     diversity.obj
 0002:00001ef8       $cppxdata$??0WeightedCountArray@dis@@QEAA@V?$vector@MV?$allocator@M@std@@@std@@@Z 000000018000fef8     diversity.obj
 0002:00001f48       $cppxdata$??$?6U?$char_traits@D@std@@@std@@YAAEAV?$basic_ostream@DU?$char_traits@D@std@@@0@AEAV10@D@Z 000000018000ff48     main.obj
 0002:00001f70       $cppxdata$??$stringJoin@PEBD@@YA?AV?$basic_string@DU?$char_traits@D@std@@V?$allocator@D@2@@std@@V01@V?$vector@PEBDV?$allocator@PEBD@std@@@1@@Z 000000018000ff70     main.obj
 0002:00001f98       $cppxdata$??$?6DU?$char_traits@D@std@@V?$allocator@D@1@@std@@YAAEAV?$basic_ostream@DU?$char_traits@D@std@@@0@AEAV10@AEBV?$basic_string@DU?$char_traits@D@std@@V?$allocator@D@2@@0@@Z 000000018000ff98     main.obj
 0002:00001fc0       $cppxdata$??$?6U?$char_traits@D@std@@@std@@YAAEAV?$basic_ostream@DU?$char_traits@D@std@@@0@AEAV10@PEBD@Z 000000018000ffc0     main.obj
 0002:00001fe8       $cppxdata$??$?HDU?$char_traits@D@std@@V?$allocator@D@1@@std@@YA?AV?$basic_string@DU?$char_traits@D@std@@V?$allocator@D@2@@0@AEBV10@0@Z 000000018000ffe8     main.obj
 0002:00002010       $cppxdata$??0?$basic_ostringstream@DU?$char_traits@D@std@@V?$allocator@D@2@@std@@QEAA@H@Z 0000000180010010     main.obj
 0002:00002038       $cppxdata$mexFunction      0000000180010038     main.obj
 0002:00002060       $cppxdata$?BuildInputErrMessage@@YA?AV?$basic_string@DU?$char_traits@D@std@@V?$allocator@D@2@@std@@XZ 0000000180010060     main.obj
 0002:00002088       $cppxdata$?excapsulate@@YA?AV?$basic_string@DU?$char_traits@D@std@@V?$allocator@D@2@@std@@V12@0@Z 0000000180010088     main.obj
 0002:000020b0       $cppxdata$?eval@?$DenseBase@V?$Transpose@V?$Map@V?$Matrix@H$0?0$0?0$0A@$0?0$0?0@Eigen@@$0A@V?$Stride@$0A@$0A@@2@@Eigen@@@Eigen@@@Eigen@@QEBA?BV?$Matrix@H$0?0$0?0$00$0?0$0?0@2@XZ 00000001800100b0     deformableDiversity.obj
 0002:000020d8       $cppxdata$?LoadXyPositions@@YA?AV?$Map@V?$Matrix@H$0?0$0?0$0A@$0?0$0?0@Eigen@@$0A@V?$Stride@$0A@$0A@@2@@Eigen@@PEAPEBUmxArray_tag@@@Z 00000001800100d8     deformableDiversity.obj
 0002:00002100       $cppxdata$?CalcDDISRasterScan@@YAXV?$Mat@H@dis@@HHAEBV?$Map@V?$Matrix@H$0?0$0?0$0A@$0?0$0?0@Eigen@@$0A@V?$Stride@$0A@$0A@@2@@Eigen@@NAEAV?$Mat@M@2@HHPEAH@Z 0000000180010100     deformableDiversity.obj
 0002:00002128       $cppxdata$??0DeformableDiversityWeightArray@dis@@QEAA@HN@Z 0000000180010128     deformableDiversity.obj
 0002:00002150       $cppxdata$??0CountArray@dis@@QEAA@H@Z 0000000180010150     deformableDiversity.obj
 0002:00002178       $cppxdata$?DeformableDiversity@dis@@YAXPEAPEAUmxArray_tag@@HPEAPEBU2@I@Z 0000000180010178     deformableDiversity.obj
 0002:000021a0       $cppxdata$??$_Buynode@AEAU?$pair@$$CBHV?$basic_string@DU?$char_traits@D@std@@V?$allocator@D@2@@std@@@std@@@?$_Tree_buy@U?$pair@$$CBHV?$basic_string@DU?$char_traits@D@std@@V?$allocator@D@2@@std@@@std@@V?$allocator@U?$pair@$$CBHV?$basic_string@DU?$char_traits@D@std@@V?$allocator@D@2@@std@@@std@@@2@@std@@QEAAPEAU?$_Tree_node@U?$pair@$$CBHV?$basic_string@DU?$char_traits@D@std@@V?$allocator@D@2@@std@@@std@@PEAX@1@AEAU?$pair@$$CBHV?$basic_string@DU?$char_traits@D@std@@V?$allocator@D@2@@std@@@1@@Z 00000001800101a0     mex_opencv_2.4:MxArray.obj
 0002:000021c8       $cppxdata$??$_Buynode@AEAU?$pair@$$CBV?$basic_string@DU?$char_traits@D@std@@V?$allocator@D@2@@std@@H@std@@@?$_Tree_buy@U?$pair@$$CBV?$basic_string@DU?$char_traits@D@std@@V?$allocator@D@2@@std@@H@std@@V?$allocator@U?$pair@$$CBV?$basic_string@DU?$char_traits@D@std@@V?$allocator@D@2@@std@@H@std@@@2@@std@@QEAAPEAU?$_Tree_node@U?$pair@$$CBV?$basic_string@DU?$char_traits@D@std@@V?$allocator@D@2@@std@@H@std@@PEAX@1@AEAU?$pair@$$CBV?$basic_string@DU?$char_traits@D@std@@V?$allocator@D@2@@std@@H@1@@Z 00000001800101c8     mex_opencv_2.4:MxArray.obj
 0002:000021f0       $cppxdata$??$_Insert_nohint@AEAU?$pair@$$CBHV?$basic_string@DU?$char_traits@D@std@@V?$allocator@D@2@@std@@@std@@PEAU?$_Tree_node@U?$pair@$$CBHV?$basic_string@DU?$char_traits@D@std@@V?$allocator@D@2@@std@@@std@@PEAX@2@@?$_Tree@V?$_Tmap_traits@HV?$basic_string@DU?$char_traits@D@std@@V?$allocator@D@2@@std@@U?$less@H@2@V?$allocator@U?$pair@$$CBHV?$basic_string@DU?$char_traits@D@std@@V?$allocator@D@2@@std@@@std@@@2@$0A@@std@@@std@@IEAA?AU?$pair@V?$_Tree_iterator@V?$_Tree_val@U?$_Tree_simple_types@U?$pair@$$CBHV?$basic_string@DU?$char_traits@D@std@@V?$allocator@D@2@@std@@@std@@@std@@@std@@@std@@_N@1@_NAEAU?$pair@$$CBHV?$basic_string@DU?$char_traits@D@std@@V?$allocator@D@2@@std@@@1@PEAU?$_Tree_node@U?$pair@$$CBHV?$basic_string@DU?$char_traits@D@std@@V?$allocator@D@2@@std@@@std@@PEAX@1@@Z 00000001800101f0     mex_opencv_2.4:MxArray.obj
 0002:00002218       $cppxdata$??$_Insert_nohint@AEAU?$pair@$$CBHW4mxClassID@@@std@@PEAU?$_Tree_node@U?$pair@$$CBHW4mxClassID@@@std@@PEAX@2@@?$_Tree@V?$_Tmap_traits@HW4mxClassID@@U?$less@H@std@@V?$allocator@U?$pair@$$CBHW4mxClassID@@@std@@@3@$0A@@std@@@std@@IEAA?AU?$pair@V?$_Tree_iterator@V?$_Tree_val@U?$_Tree_simple_types@U?$pair@$$CBHW4mxClassID@@@std@@@std@@@std@@@std@@_N@1@_NAEAU?$pair@$$CBHW4mxClassID@@@1@PEAU?$_Tree_node@U?$pair@$$CBHW4mxClassID@@@std@@PEAX@1@@Z 0000000180010218     mex_opencv_2.4:MxArray.obj
 0002:00002218       $cppxdata$??$_Insert_nohint@AEAU?$pair@$$CBW4mxClassID@@H@std@@PEAU?$_Tree_node@U?$pair@$$CBW4mxClassID@@H@std@@PEAX@2@@?$_Tree@V?$_Tmap_traits@W4mxClassID@@HU?$less@W4mxClassID@@@std@@V?$allocator@U?$pair@$$CBW4mxClassID@@H@std@@@3@$0A@@std@@@std@@IEAA?AU?$pair@V?$_Tree_iterator@V?$_Tree_val@U?$_Tree_simple_types@U?$pair@$$CBW4mxClassID@@H@std@@@std@@@std@@@std@@_N@1@_NAEAU?$pair@$$CBW4mxClassID@@H@1@PEAU?$_Tree_node@U?$pair@$$CBW4mxClassID@@H@std@@PEAX@1@@Z 0000000180010218     mex_opencv_2.4:MxArray.obj
 0002:00002240       $cppxdata$??$_Insert_nohint@AEAU?$pair@$$CBV?$basic_string@DU?$char_traits@D@std@@V?$allocator@D@2@@std@@H@std@@PEAU?$_Tree_node@U?$pair@$$CBV?$basic_string@DU?$char_traits@D@std@@V?$allocator@D@2@@std@@H@std@@PEAX@2@@?$_Tree@V?$_Tmap_traits@V?$basic_string@DU?$char_traits@D@std@@V?$allocator@D@2@@std@@HU?$less@V?$basic_string@DU?$char_traits@D@std@@V?$allocator@D@2@@std@@@2@V?$allocator@U?$pair@$$CBV?$basic_string@DU?$char_traits@D@std@@V?$allocator@D@2@@std@@H@std@@@2@$0A@@std@@@std@@IEAA?AU?$pair@V?$_Tree_iterator@V?$_Tree_val@U?$_Tree_simple_types@U?$pair@$$CBV?$basic_string@DU?$char_traits@D@std@@V?$allocator@D@2@@std@@H@std@@@std@@@std@@@std@@_N@1@_NAEAU?$pair@$$CBV?$basic_string@DU?$char_traits@D@std@@V?$allocator@D@2@@std@@H@1@PEAU?$_Tree_node@U?$pair@$$CBV?$basic_string@DU?$char_traits@D@std@@V?$allocator@D@2@@std@@H@std@@PEAX@1@@Z 0000000180010240     mex_opencv_2.4:MxArray.obj
 0002:00002268       $cppxdata$??$_Copy_nodes@U?$integral_constant@_N$0A@@std@@@?$_Tree@V?$_Tmap_traits@HV?$basic_string@DU?$char_traits@D@std@@V?$allocator@D@2@@std@@U?$less@H@2@V?$allocator@U?$pair@$$CBHV?$basic_string@DU?$char_traits@D@std@@V?$allocator@D@2@@std@@@std@@@2@$0A@@std@@@std@@IEAAPEAU?$_Tree_node@U?$pair@$$CBHV?$basic_string@DU?$char_traits@D@std@@V?$allocator@D@2@@std@@@std@@PEAX@1@PEAU21@0U?$integral_constant@_N$0A@@1@@Z 0000000180010268     mex_opencv_2.4:MxArray.obj
 0002:00002290       $cppxdata$??$_Insert_hint@AEAU?$pair@$$CBHV?$basic_string@DU?$char_traits@D@std@@V?$allocator@D@2@@std@@@std@@PEAU?$_Tree_node@U?$pair@$$CBHV?$basic_string@DU?$char_traits@D@std@@V?$allocator@D@2@@std@@@std@@PEAX@2@@?$_Tree@V?$_Tmap_traits@HV?$basic_string@DU?$char_traits@D@std@@V?$allocator@D@2@@std@@U?$less@H@2@V?$allocator@U?$pair@$$CBHV?$basic_string@DU?$char_traits@D@std@@V?$allocator@D@2@@std@@@std@@@2@$0A@@std@@@std@@IEAA?AV?$_Tree_iterator@V?$_Tree_val@U?$_Tree_simple_types@U?$pair@$$CBHV?$basic_string@DU?$char_traits@D@std@@V?$allocator@D@2@@std@@@std@@@std@@@std@@@1@V?$_Tree_const_iterator@V?$_Tree_val@U?$_Tree_simple_types@U?$pair@$$CBHV?$basic_string@DU?$char_traits@D@std@@V?$allocator@D@2@@std@@@std@@@std@@@std@@@1@AEAU?$pair@$$CBHV?$basic_string@DU?$char_traits@D@std@@V?$allocator@D@2@@std@@@1@PEAU?$_Tree_node@U?$pair@$$CBHV?$basic_string@DU?$char_traits@D@std@@V?$allocator@D@2@@std@@@std@@PEAX@1@@Z 0000000180010290     mex_opencv_2.4:MxArray.obj
 0002:000022b8       $cppxdata$??$_Copy_nodes@U?$integral_constant@_N$0A@@std@@@?$_Tree@V?$_Tmap_traits@HW4mxClassID@@U?$less@H@std@@V?$allocator@U?$pair@$$CBHW4mxClassID@@@std@@@3@$0A@@std@@@std@@IEAAPEAU?$_Tree_node@U?$pair@$$CBHW4mxClassID@@@std@@PEAX@1@PEAU21@0U?$integral_constant@_N$0A@@1@@Z 00000001800102b8     mex_opencv_2.4:MxArray.obj
 0002:000022b8       $cppxdata$??$_Copy_nodes@U?$integral_constant@_N$0A@@std@@@?$_Tree@V?$_Tmap_traits@W4mxClassID@@HU?$less@W4mxClassID@@@std@@V?$allocator@U?$pair@$$CBW4mxClassID@@H@std@@@3@$0A@@std@@@std@@IEAAPEAU?$_Tree_node@U?$pair@$$CBW4mxClassID@@H@std@@PEAX@1@PEAU21@0U?$integral_constant@_N$0A@@1@@Z 00000001800102b8     mex_opencv_2.4:MxArray.obj
 0002:000022e0       $cppxdata$??$_Insert_hint@AEAU?$pair@$$CBHW4mxClassID@@@std@@PEAU?$_Tree_node@U?$pair@$$CBHW4mxClassID@@@std@@PEAX@2@@?$_Tree@V?$_Tmap_traits@HW4mxClassID@@U?$less@H@std@@V?$allocator@U?$pair@$$CBHW4mxClassID@@@std@@@3@$0A@@std@@@std@@IEAA?AV?$_Tree_iterator@V?$_Tree_val@U?$_Tree_simple_types@U?$pair@$$CBHW4mxClassID@@@std@@@std@@@std@@@1@V?$_Tree_const_iterator@V?$_Tree_val@U?$_Tree_simple_types@U?$pair@$$CBHW4mxClassID@@@std@@@std@@@std@@@1@AEAU?$pair@$$CBHW4mxClassID@@@1@PEAU?$_Tree_node@U?$pair@$$CBHW4mxClassID@@@std@@PEAX@1@@Z 00000001800102e0     mex_opencv_2.4:MxArray.obj
 0002:000022e0       $cppxdata$??$_Insert_hint@AEAU?$pair@$$CBW4mxClassID@@H@std@@PEAU?$_Tree_node@U?$pair@$$CBW4mxClassID@@H@std@@PEAX@2@@?$_Tree@V?$_Tmap_traits@W4mxClassID@@HU?$less@W4mxClassID@@@std@@V?$allocator@U?$pair@$$CBW4mxClassID@@H@std@@@3@$0A@@std@@@std@@IEAA?AV?$_Tree_iterator@V?$_Tree_val@U?$_Tree_simple_types@U?$pair@$$CBW4mxClassID@@H@std@@@std@@@std@@@1@V?$_Tree_const_iterator@V?$_Tree_val@U?$_Tree_simple_types@U?$pair@$$CBW4mxClassID@@H@std@@@std@@@std@@@1@AEAU?$pair@$$CBW4mxClassID@@H@1@PEAU?$_Tree_node@U?$pair@$$CBW4mxClassID@@H@std@@PEAX@1@@Z 00000001800102e0     mex_opencv_2.4:MxArray.obj
 0002:00002308       $cppxdata$??$_Copy_nodes@U?$integral_constant@_N$0A@@std@@@?$_Tree@V?$_Tmap_traits@V?$basic_string@DU?$char_traits@D@std@@V?$allocator@D@2@@std@@HU?$less@V?$basic_string@DU?$char_traits@D@std@@V?$allocator@D@2@@std@@@2@V?$allocator@U?$pair@$$CBV?$basic_string@DU?$char_traits@D@std@@V?$allocator@D@2@@std@@H@std@@@2@$0A@@std@@@std@@IEAAPEAU?$_Tree_node@U?$pair@$$CBV?$basic_string@DU?$char_traits@D@std@@V?$allocator@D@2@@std@@H@std@@PEAX@1@PEAU21@0U?$integral_constant@_N$0A@@1@@Z 0000000180010308     mex_opencv_2.4:MxArray.obj
 0002:00002330       $cppxdata$??$_Insert_hint@AEAU?$pair@$$CBV?$basic_string@DU?$char_traits@D@std@@V?$allocator@D@2@@std@@H@std@@PEAU?$_Tree_node@U?$pair@$$CBV?$basic_string@DU?$char_traits@D@std@@V?$allocator@D@2@@std@@H@std@@PEAX@2@@?$_Tree@V?$_Tmap_traits@V?$basic_string@DU?$char_traits@D@std@@V?$allocator@D@2@@std@@HU?$less@V?$basic_string@DU?$char_traits@D@std@@V?$allocator@D@2@@std@@@2@V?$allocator@U?$pair@$$CBV?$basic_string@DU?$char_traits@D@std@@V?$allocator@D@2@@std@@H@std@@@2@$0A@@std@@@std@@IEAA?AV?$_Tree_iterator@V?$_Tree_val@U?$_Tree_simple_types@U?$pair@$$CBV?$basic_string@DU?$char_traits@D@std@@V?$allocator@D@2@@std@@H@std@@@std@@@std@@@1@V?$_Tree_const_iterator@V?$_Tree_val@U?$_Tree_simple_types@U?$pair@$$CBV?$basic_string@DU?$char_traits@D@std@@V?$allocator@D@2@@std@@H@std@@@std@@@std@@@1@AEAU?$pair@$$CBV?$basic_string@DU?$char_traits@D@std@@V?$allocator@D@2@@std@@H@1@PEAU?$_Tree_node@U?$pair@$$CBV?$basic_string@DU?$char_traits@D@std@@V?$allocator@D@2@@std@@H@std@@PEAX@1@@Z 0000000180010330     mex_opencv_2.4:MxArray.obj
 0002:00002358       $cppxdata$??$_Buynode@AEBUpiecewise_construct_t@std@@V?$tuple@AEBV?$basic_string@DU?$char_traits@D@std@@V?$allocator@D@2@@std@@@2@V?$tuple@$$$V@2@@?$_Tree_buy@U?$pair@$$CBV?$basic_string@DU?$char_traits@D@std@@V?$allocator@D@2@@std@@H@std@@V?$allocator@U?$pair@$$CBV?$basic_string@DU?$char_traits@D@std@@V?$allocator@D@2@@std@@H@std@@@2@@std@@QEAAPEAU?$_Tree_node@U?$pair@$$CBV?$basic_string@DU?$char_traits@D@std@@V?$allocator@D@2@@std@@H@std@@PEAX@1@AEBUpiecewise_construct_t@1@$$QEAV?$tuple@AEBV?$basic_string@DU?$char_traits@D@std@@V?$allocator@D@2@@std@@@1@$$QEAV?$tuple@$$$V@1@@Z 0000000180010358     mex_opencv_2.4:MxArray.obj
 0002:00002380       $cppxdata$??0?$_Tree@V?$_Tmap_traits@HV?$basic_string@DU?$char_traits@D@std@@V?$allocator@D@2@@std@@U?$less@H@2@V?$allocator@U?$pair@$$CBHV?$basic_string@DU?$char_traits@D@std@@V?$allocator@D@2@@std@@@std@@@2@$0A@@std@@@std@@QEAA@AEBV01@AEBV?$allocator@U?$pair@$$CBHV?$basic_string@DU?$char_traits@D@std@@V?$allocator@D@2@@std@@@std@@@1@@Z 0000000180010380     mex_opencv_2.4:MxArray.obj
 0002:000023a8       $cppxdata$??0?$_Tree@V?$_Tmap_traits@HW4mxClassID@@U?$less@H@std@@V?$allocator@U?$pair@$$CBHW4mxClassID@@@std@@@3@$0A@@std@@@std@@QEAA@AEBV01@AEBV?$allocator@U?$pair@$$CBHW4mxClassID@@@std@@@1@@Z 00000001800103a8     mex_opencv_2.4:MxArray.obj
 0002:000023d0       $cppxdata$??0?$_Tree@V?$_Tmap_traits@W4mxClassID@@HU?$less@W4mxClassID@@@std@@V?$allocator@U?$pair@$$CBW4mxClassID@@H@std@@@3@$0A@@std@@@std@@QEAA@AEBV01@AEBV?$allocator@U?$pair@$$CBW4mxClassID@@H@std@@@1@@Z 00000001800103d0     mex_opencv_2.4:MxArray.obj
 0002:000023f8       $cppxdata$??0?$_Tree@V?$_Tmap_traits@V?$basic_string@DU?$char_traits@D@std@@V?$allocator@D@2@@std@@HU?$less@V?$basic_string@DU?$char_traits@D@std@@V?$allocator@D@2@@std@@@2@V?$allocator@U?$pair@$$CBV?$basic_string@DU?$char_traits@D@std@@V?$allocator@D@2@@std@@H@std@@@2@$0A@@std@@@std@@QEAA@AEBV01@AEBV?$allocator@U?$pair@$$CBV?$basic_string@DU?$char_traits@D@std@@V?$allocator@D@2@@std@@H@std@@@1@@Z 00000001800103f8     mex_opencv_2.4:MxArray.obj
 0002:00002420       $cppxdata$??__ETermCritType@?A0x6487b33d@@YAXXZ 0000000180010420     mex_opencv_2.4:MxArray.obj
 0002:00002448       $cppxdata$??__EInvTermCritType@?A0x6487b33d@@YAXXZ 0000000180010448     mex_opencv_2.4:MxArray.obj
 0002:00002470       $cppxdata$??__EClassIDOf@?A0x6487b33d@@YAXXZ 0000000180010470     mex_opencv_2.4:MxArray.obj
 0002:00002498       $cppxdata$??__EDepthOf@?A0x6487b33d@@YAXXZ 0000000180010498     mex_opencv_2.4:MxArray.obj
 0002:00002df0       $unwind$??$_Buynode@AEBUpiecewise_construct_t@std@@V?$tuple@AEBH@2@V?$tuple@$$$V@2@@?$_Tree_buy@U?$pair@$$CBHV?$basic_string@DU?$char_traits@D@std@@V?$allocator@D@2@@std@@@std@@V?$allocator@U?$pair@$$CBHV?$basic_string@DU?$char_traits@D@std@@V?$allocator@D@2@@std@@@std@@@2@@std@@QEAAPEAU?$_Tree_node@U?$pair@$$CBHV?$basic_string@DU?$char_traits@D@std@@V?$allocator@D@2@@std@@@std@@PEAX@1@AEBUpiecewise_construct_t@1@$$QEAV?$tuple@AEBH@1@$$QEAV?$tuple@$$$V@1@@Z 0000000180010df0     mex_opencv_2.4:MxArray.obj
 0002:00002df0       $unwind$??$at@N@MxArray@@QEBAN_K@Z 0000000180010df0     mex_opencv_2.4:MxArray.obj
 0002:00002df0       $unwind$??1?$ConstMap@V?$basic_string@DU?$char_traits@D@std@@V?$allocator@D@2@@std@@H@@QEAA@XZ 0000000180010df0     mex_opencv_2.4:MxArray.obj
 0002:00002df0       $unwind$??1?$map@HW4mxClassID@@U?$less@H@std@@V?$allocator@U?$pair@$$CBHW4mxClassID@@@std@@@3@@std@@QEAA@XZ 0000000180010df0     mex_opencv_2.4:MxArray.obj
 0002:00002df0       $unwind$??_GMxArray@@UEAAPEAXI@Z 0000000180010df0     diversity.obj
 0002:00002df0       $unwind$??$_Buynode@AEAU?$pair@$$CBW4mxClassID@@H@std@@@?$_Tree_buy@U?$pair@$$CBW4mxClassID@@H@std@@V?$allocator@U?$pair@$$CBW4mxClassID@@H@std@@@2@@std@@QEAAPEAU?$_Tree_node@U?$pair@$$CBW4mxClassID@@H@std@@PEAX@1@AEAU?$pair@$$CBW4mxClassID@@H@1@@Z 0000000180010df0     mex_opencv_2.4:MxArray.obj
 0002:00002df0       $unwind$??1?$vector@UddisScanParams@@V?$allocator@UddisScanParams@@@std@@@std@@QEAA@XZ 0000000180010df0     deformableDiversity.obj
 0002:00002df0       $unwind$__GSHandlerCheckCommon 0000000180010df0     MSVCRT:gshandler.obj
 0002:00002df0       $unwind$??$_Buynode@AEAU?$pair@$$CBHW4mxClassID@@@std@@@?$_Tree_buy@U?$pair@$$CBHW4mxClassID@@@std@@V?$allocator@U?$pair@$$CBHW4mxClassID@@@std@@@2@@std@@QEAAPEAU?$_Tree_node@U?$pair@$$CBHW4mxClassID@@@std@@PEAX@1@AEAU?$pair@$$CBHW4mxClassID@@@1@@Z 0000000180010df0     mex_opencv_2.4:MxArray.obj
 0002:00002df0       $unwind$??__FInvTermCritType@?A0x6487b33d@@YAXXZ 0000000180010df0     mex_opencv_2.4:MxArray.obj
 0002:00002df0       $unwind$?_Buy@?$vector@MV?$allocator@M@std@@@std@@IEAA_N_K@Z 0000000180010df0     diversity.obj
 0002:00002df0       $unwind$??_G_Generic_error_category@std@@UEAAPEAXI@Z 0000000180010df0     diversity.obj
 0002:00002df0       $unwind$??_G_Iostream_error_category@std@@UEAAPEAXI@Z 0000000180010df0     diversity.obj
 0002:00002df0       $unwind$??$at@H@MxArray@@QEBAH_K@Z 0000000180010df0     mex_opencv_2.4:MxArray.obj
 0002:00002df0       $unwind$??1?$vector@NV?$allocator@N@std@@@std@@QEAA@XZ 0000000180010df0     deformableDiversity.obj
 0002:00002df0       $unwind$??1?$vector@Vthread@std@@V?$allocator@Vthread@std@@@2@@std@@QEAA@XZ 0000000180010df0     deformableDiversity.obj
 0002:00002df0       $unwind$??$_Insert_at@AEAU?$pair@$$CBHW4mxClassID@@@std@@PEAU?$_Tree_node@U?$pair@$$CBHW4mxClassID@@@std@@PEAX@2@@?$_Tree@V?$_Tmap_traits@HW4mxClassID@@U?$less@H@std@@V?$allocator@U?$pair@$$CBHW4mxClassID@@@std@@@3@$0A@@std@@@std@@IEAA?AV?$_Tree_iterator@V?$_Tree_val@U?$_Tree_simple_types@U?$pair@$$CBHW4mxClassID@@@std@@@std@@@std@@@1@_NPEAU?$_Tree_node@U?$pair@$$CBHW4mxClassID@@@std@@PEAX@1@AEAU?$pair@$$CBHW4mxClassID@@@1@1@Z 0000000180010df0     mex_opencv_2.4:MxArray.obj
 0002:00002df0       $unwind$?_Buy@?$vector@HV?$allocator@H@std@@@std@@IEAA_N_K@Z 0000000180010df0     diversity.obj
 0002:00002df0       $unwind$??0bad_alloc@std@@QEAA@AEBV01@@Z 0000000180010df0     deformableDiversity.obj
 0002:00002df0       $unwind$??1?$ConstMap@W4mxClassID@@H@@QEAA@XZ 0000000180010df0     mex_opencv_2.4:MxArray.obj
 0002:00002df0       $unwind$??$_Insert_at@AEAU?$pair@$$CBW4mxClassID@@H@std@@PEAU?$_Tree_node@U?$pair@$$CBW4mxClassID@@H@std@@PEAX@2@@?$_Tree@V?$_Tmap_traits@W4mxClassID@@HU?$less@W4mxClassID@@@std@@V?$allocator@U?$pair@$$CBW4mxClassID@@H@std@@@3@$0A@@std@@@std@@IEAA?AV?$_Tree_iterator@V?$_Tree_val@U?$_Tree_simple_types@U?$pair@$$CBW4mxClassID@@H@std@@@std@@@std@@@1@_NPEAU?$_Tree_node@U?$pair@$$CBW4mxClassID@@H@std@@PEAX@1@AEAU?$pair@$$CBW4mxClassID@@H@1@1@Z 0000000180010df0     mex_opencv_2.4:MxArray.obj
 0002:00002df0       $unwind$??1?$ConstMap@HW4mxClassID@@@@QEAA@XZ 0000000180010df0     mex_opencv_2.4:MxArray.obj
 0002:00002df0       $unwind$??1sentry@?$basic_ostream@DU?$char_traits@D@std@@@std@@QEAA@XZ 0000000180010df0     main.obj
 0002:00002df0       $unwind$??1?$basic_string@DU?$char_traits@D@std@@V?$allocator@D@2@@std@@QEAA@XZ 0000000180010df0     diversity.obj
 0002:00002df0       $unwind$??1?$vector@HV?$allocator@H@std@@@std@@QEAA@XZ 0000000180010df0     diversity.obj
 0002:00002df0       $unwind$??1?$ConstMap@HV?$basic_string@DU?$char_traits@D@std@@V?$allocator@D@2@@std@@@@QEAA@XZ 0000000180010df0     mex_opencv_2.4:MxArray.obj
 0002:00002df0       $unwind$??_Gerror_category@std@@UEAAPEAXI@Z 0000000180010df0     diversity.obj
 0002:00002df0       $unwind$__atonexitinit     0000000180010df0     MSVCRT:atonexit.obj
 0002:00002df0       $unwind$??1?$vector@MV?$allocator@M@std@@@std@@QEAA@XZ 0000000180010df0     diversity.obj
 0002:00002df0       $unwind$??__FClassIDOf@?A0x6487b33d@@YAXXZ 0000000180010df0     mex_opencv_2.4:MxArray.obj
 0002:00002df0       $unwind$??1?$map@HV?$basic_string@DU?$char_traits@D@std@@V?$allocator@D@2@@std@@U?$less@H@2@V?$allocator@U?$pair@$$CBHV?$basic_string@DU?$char_traits@D@std@@V?$allocator@D@2@@std@@@std@@@2@@std@@QEAA@XZ 0000000180010df0     mex_opencv_2.4:MxArray.obj
 0002:00002df0       $unwind$__raise_securityfailure 0000000180010df0     MSVCRT:gs_report.obj
 0002:00002df0       $unwind$??$_Buynode@AEBUpiecewise_construct_t@std@@V?$tuple@AEBH@2@V?$tuple@$$$V@2@@?$_Tree_buy@U?$pair@$$CBHW4mxClassID@@@std@@V?$allocator@U?$pair@$$CBHW4mxClassID@@@std@@@2@@std@@QEAAPEAU?$_Tree_node@U?$pair@$$CBHW4mxClassID@@@std@@PEAX@1@AEBUpiecewise_construct_t@1@$$QEAV?$tuple@AEBH@1@$$QEAV?$tuple@$$$V@1@@Z 0000000180010df0     mex_opencv_2.4:MxArray.obj
 0002:00002df0       $unwind$?_Buynode0@?$_Tree_buy@U?$pair@$$CBV?$basic_string@DU?$char_traits@D@std@@V?$allocator@D@2@@std@@H@std@@V?$allocator@U?$pair@$$CBV?$basic_string@DU?$char_traits@D@std@@V?$allocator@D@2@@std@@H@std@@@2@@std@@QEAAPEAU?$_Tree_node@U?$pair@$$CBV?$basic_string@DU?$char_traits@D@std@@V?$allocator@D@2@@std@@H@std@@PEAX@2@XZ 0000000180010df0     mex_opencv_2.4:MxArray.obj
 0002:00002df0       $unwind$??_G_System_error_category@std@@UEAAPEAXI@Z 0000000180010df0     diversity.obj
 0002:00002df0       $unwind$??$_Insert_at@AEAU?$pair@$$CBV?$basic_string@DU?$char_traits@D@std@@V?$allocator@D@2@@std@@H@std@@PEAU?$_Tree_node@U?$pair@$$CBV?$basic_string@DU?$char_traits@D@std@@V?$allocator@D@2@@std@@H@std@@PEAX@2@@?$_Tree@V?$_Tmap_traits@V?$basic_string@DU?$char_traits@D@std@@V?$allocator@D@2@@std@@HU?$less@V?$basic_string@DU?$char_traits@D@std@@V?$allocator@D@2@@std@@@2@V?$allocator@U?$pair@$$CBV?$basic_string@DU?$char_traits@D@std@@V?$allocator@D@2@@std@@H@std@@@2@$0A@@std@@@std@@IEAA?AV?$_Tree_iterator@V?$_Tree_val@U?$_Tree_simple_types@U?$pair@$$CBV?$basic_string@DU?$char_traits@D@std@@V?$allocator@D@2@@std@@H@std@@@std@@@std@@@1@_NPEAU?$_Tree_node@U?$pair@$$CBV?$basic_string@DU?$char_traits@D@std@@V?$allocator@D@2@@std@@H@std@@PEAX@1@AEAU?$pair@$$CBV?$basic_string@DU?$char_traits@D@std@@V?$allocator@D@2@@std@@H@1@1@Z 0000000180010df0     mex_opencv_2.4:MxArray.obj
 0002:00002df0       $unwind$??$_Insert_at@AEAU?$pair@$$CBHV?$basic_string@DU?$char_traits@D@std@@V?$allocator@D@2@@std@@@std@@PEAU?$_Tree_node@U?$pair@$$CBHV?$basic_string@DU?$char_traits@D@std@@V?$allocator@D@2@@std@@@std@@PEAX@2@@?$_Tree@V?$_Tmap_traits@HV?$basic_string@DU?$char_traits@D@std@@V?$allocator@D@2@@std@@U?$less@H@2@V?$allocator@U?$pair@$$CBHV?$basic_string@DU?$char_traits@D@std@@V?$allocator@D@2@@std@@@std@@@2@$0A@@std@@@std@@IEAA?AV?$_Tree_iterator@V?$_Tree_val@U?$_Tree_simple_types@U?$pair@$$CBHV?$basic_string@DU?$char_traits@D@std@@V?$allocator@D@2@@std@@@std@@@std@@@std@@@1@_NPEAU?$_Tree_node@U?$pair@$$CBHV?$basic_string@DU?$char_traits@D@std@@V?$allocator@D@2@@std@@@std@@PEAX@1@AEAU?$pair@$$CBHV?$basic_string@DU?$char_traits@D@std@@V?$allocator@D@2@@std@@@1@1@Z 0000000180010df0     mex_opencv_2.4:MxArray.obj
 0002:00002df0       $unwind$??1?$vector@PEBDV?$allocator@PEBD@std@@@std@@QEAA@XZ 0000000180010df0     main.obj
 0002:00002df0       $unwind$??__FDepthOf@?A0x6487b33d@@YAXXZ 0000000180010df0     mex_opencv_2.4:MxArray.obj
 0002:00002df0       $unwind$?_Buynode0@?$_Tree_buy@U?$pair@$$CBHV?$basic_string@DU?$char_traits@D@std@@V?$allocator@D@2@@std@@@std@@V?$allocator@U?$pair@$$CBHV?$basic_string@DU?$char_traits@D@std@@V?$allocator@D@2@@std@@@std@@@2@@std@@QEAAPEAU?$_Tree_node@U?$pair@$$CBHV?$basic_string@DU?$char_traits@D@std@@V?$allocator@D@2@@std@@@std@@PEAX@2@XZ 0000000180010df0     mex_opencv_2.4:MxArray.obj
 0002:00002df0       $unwind$??_D?$basic_ostringstream@DU?$char_traits@D@std@@V?$allocator@D@2@@std@@QEAAXXZ 0000000180010df0     main.obj
 0002:00002df0       $unwind$??1?$map@W4mxClassID@@HU?$less@W4mxClassID@@@std@@V?$allocator@U?$pair@$$CBW4mxClassID@@H@std@@@3@@std@@QEAA@XZ 0000000180010df0     mex_opencv_2.4:MxArray.obj
 0002:00002df0       $unwind$?_Destroy_if_not_nil@?$_Tree@V?$_Tmap_traits@HV?$basic_string@DU?$char_traits@D@std@@V?$allocator@D@2@@std@@U?$less@H@2@V?$allocator@U?$pair@$$CBHV?$basic_string@DU?$char_traits@D@std@@V?$allocator@D@2@@std@@@std@@@2@$0A@@std@@@std@@IEAAXPEAU?$_Tree_node@U?$pair@$$CBHV?$basic_string@DU?$char_traits@D@std@@V?$allocator@D@2@@std@@@std@@PEAX@2@@Z 0000000180010df0     mex_opencv_2.4:MxArray.obj
 0002:00002df0       $unwind$?_Buynode0@?$_Tree_buy@U?$pair@$$CBHW4mxClassID@@@std@@V?$allocator@U?$pair@$$CBHW4mxClassID@@@std@@@2@@std@@QEAAPEAU?$_Tree_node@U?$pair@$$CBHW4mxClassID@@@std@@PEAX@2@XZ 0000000180010df0     mex_opencv_2.4:MxArray.obj
 0002:00002df0       $unwind$?_Buy@?$vector@NV?$allocator@N@std@@@std@@IEAA_N_K@Z 0000000180010df0     deformableDiversity.obj
 0002:00002df0       $unwind$?_Destroy_if_not_nil@?$_Tree@V?$_Tmap_traits@V?$basic_string@DU?$char_traits@D@std@@V?$allocator@D@2@@std@@HU?$less@V?$basic_string@DU?$char_traits@D@std@@V?$allocator@D@2@@std@@@2@V?$allocator@U?$pair@$$CBV?$basic_string@DU?$char_traits@D@std@@V?$allocator@D@2@@std@@H@std@@@2@$0A@@std@@@std@@IEAAXPEAU?$_Tree_node@U?$pair@$$CBV?$basic_string@DU?$char_traits@D@std@@V?$allocator@D@2@@std@@H@std@@PEAX@2@@Z 0000000180010df0     mex_opencv_2.4:MxArray.obj
 0002:00002df0       $unwind$??$_Buynode@AEBUpiecewise_construct_t@std@@V?$tuple@AEBW4mxClassID@@@2@V?$tuple@$$$V@2@@?$_Tree_buy@U?$pair@$$CBW4mxClassID@@H@std@@V?$allocator@U?$pair@$$CBW4mxClassID@@H@std@@@2@@std@@QEAAPEAU?$_Tree_node@U?$pair@$$CBW4mxClassID@@H@std@@PEAX@1@AEBUpiecewise_construct_t@1@$$QEAV?$tuple@AEBW4mxClassID@@@1@$$QEAV?$tuple@$$$V@1@@Z 0000000180010df0     mex_opencv_2.4:MxArray.obj
 0002:00002df0       $unwind$??1?$map@V?$basic_string@DU?$char_traits@D@std@@V?$allocator@D@2@@std@@HU?$less@V?$basic_string@DU?$char_traits@D@std@@V?$allocator@D@2@@std@@@2@V?$allocator@U?$pair@$$CBV?$basic_string@DU?$char_traits@D@std@@V?$allocator@D@2@@std@@H@std@@@2@@std@@QEAA@XZ 0000000180010df0     mex_opencv_2.4:MxArray.obj
 0002:00002df0       $unwind$??__FTermCritType@?A0x6487b33d@@YAXXZ 0000000180010df0     mex_opencv_2.4:MxArray.obj
 0002:00002df0       $unwind$??1CountArray@dis@@QEAA@XZ 0000000180010df0     deformableDiversity.obj
 0002:00002df0       $unwind$pre_c_init         0000000180010df0     MSVCRT:crtdll.obj
 0002:00002df0       $unwind$?_Buynode0@?$_Tree_buy@U?$pair@$$CBW4mxClassID@@H@std@@V?$allocator@U?$pair@$$CBW4mxClassID@@H@std@@@2@@std@@QEAAPEAU?$_Tree_node@U?$pair@$$CBW4mxClassID@@H@std@@PEAX@2@XZ 0000000180010df0     mex_opencv_2.4:MxArray.obj
 0002:00002df8       $unwind$?message@_Iostream_error_category@std@@UEBA?AV?$basic_string@DU?$char_traits@D@std@@V?$allocator@D@2@@2@H@Z 0000000180010df8     diversity.obj
 0002:00002df8       $unwind$??$?HDU?$char_traits@D@std@@V?$allocator@D@1@@std@@YA?AV?$basic_string@DU?$char_traits@D@std@@V?$allocator@D@2@@0@$$QEAV10@AEBV10@@Z 0000000180010df8     main.obj
 0002:00002df8       $unwind$?str@?$basic_ostringstream@DU?$char_traits@D@std@@V?$allocator@D@2@@std@@QEBA?AV?$basic_string@DU?$char_traits@D@std@@V?$allocator@D@2@@2@XZ 0000000180010df8     main.obj
 0002:00002df8       $unwind$?equivalent@error_category@std@@UEBA_NHAEBVerror_condition@2@@Z 0000000180010df8     diversity.obj
 0002:00002e00       $unwind$?message@_Generic_error_category@std@@UEBA?AV?$basic_string@DU?$char_traits@D@std@@V?$allocator@D@2@@2@H@Z 0000000180010e00     diversity.obj
 0002:00002e00       $unwind$?message@_System_error_category@std@@UEBA?AV?$basic_string@DU?$char_traits@D@std@@V?$allocator@D@2@@2@H@Z 0000000180010e00     diversity.obj
 0002:00002e00       $unwind$??0?$vector@UddisScanParams@@V?$allocator@UddisScanParams@@@std@@@std@@QEAA@_K@Z 0000000180010e00     deformableDiversity.obj
 0002:00002e0c       $unwind$??_Gbad_alloc@std@@UEAAPEAXI@Z 0000000180010e0c     deformableDiversity.obj
 0002:00002e0c       $unwind$??$_Copy@U?$integral_constant@_N$0A@@std@@@?$_Tree@V?$_Tmap_traits@HV?$basic_string@DU?$char_traits@D@std@@V?$allocator@D@2@@std@@U?$less@H@2@V?$allocator@U?$pair@$$CBHV?$basic_string@DU?$char_traits@D@std@@V?$allocator@D@2@@std@@@std@@@2@$0A@@std@@@std@@IEAAXAEBV01@U?$integral_constant@_N$0A@@1@@Z 0000000180010e0c     mex_opencv_2.4:MxArray.obj
 0002:00002e0c       $unwind$??0?$basic_string@DU?$char_traits@D@std@@V?$allocator@D@2@@std@@QEAA@$$QEAV01@@Z 0000000180010e0c     main.obj
 0002:00002e0c       $unwind$?default_error_condition@_System_error_category@std@@UEBA?AVerror_condition@2@H@Z 0000000180010e0c     diversity.obj
 0002:00002e0c       $unwind$??$at@M@MxArray@@QEBAM_K@Z 0000000180010e0c     diversity.obj
 0002:00002e0c       $unwind$??$_Copy@U?$integral_constant@_N$0A@@std@@@?$_Tree@V?$_Tmap_traits@HW4mxClassID@@U?$less@H@std@@V?$allocator@U?$pair@$$CBHW4mxClassID@@@std@@@3@$0A@@std@@@std@@IEAAXAEBV01@U?$integral_constant@_N$0A@@1@@Z 0000000180010e0c     mex_opencv_2.4:MxArray.obj
 0002:00002e0c       $unwind$??$_Copy@U?$integral_constant@_N$0A@@std@@@?$_Tree@V?$_Tmap_traits@W4mxClassID@@HU?$less@W4mxClassID@@@std@@V?$allocator@U?$pair@$$CBW4mxClassID@@H@std@@@3@$0A@@std@@@std@@IEAAXAEBV01@U?$integral_constant@_N$0A@@1@@Z 0000000180010e0c     mex_opencv_2.4:MxArray.obj
 0002:00002e0c       $unwind$??$_Copy@U?$integral_constant@_N$0A@@std@@@?$_Tree@V?$_Tmap_traits@V?$basic_string@DU?$char_traits@D@std@@V?$allocator@D@2@@std@@HU?$less@V?$basic_string@DU?$char_traits@D@std@@V?$allocator@D@2@@std@@@2@V?$allocator@U?$pair@$$CBV?$basic_string@DU?$char_traits@D@std@@V?$allocator@D@2@@std@@H@std@@@2@$0A@@std@@@std@@IEAAXAEBV01@U?$integral_constant@_N$0A@@1@@Z 0000000180010e0c     mex_opencv_2.4:MxArray.obj
 0002:00002e0c       $unwind$?erase@?$basic_string@DU?$char_traits@D@std@@V?$allocator@D@2@@std@@QEAAAEAV12@_K0@Z 0000000180010e0c     diversity.obj
 0002:00002e0c       $unwind$??1?$basic_ostringstream@DU?$char_traits@D@std@@V?$allocator@D@2@@std@@UEAA@XZ 0000000180010e0c     main.obj
 0002:00002e0c       $unwind$_RTC_Terminate     0000000180010e0c     MSVCRT:initsect.obj
 0002:00002e0c       $unwind$?_Assign_rv@?$basic_string@DU?$char_traits@D@std@@V?$allocator@D@2@@std@@QEAAX$$QEAV12@@Z 0000000180010e0c     main.obj
 0002:00002e0c       $unwind$??_G?$basic_stringbuf@DU?$char_traits@D@std@@V?$allocator@D@2@@std@@UEAAPEAXI@Z 0000000180010e0c     main.obj
 0002:00002e0c       $unwind$_RTC_Initialize    0000000180010e0c     MSVCRT:initsect.obj
 0002:00002e0c       $unwind$??1DeformableDiversityWeightArray@dis@@QEAA@XZ 0000000180010e0c     deformableDiversity.obj
 0002:00002e18       $unwind$??0WeightedCountArray@dis@@QEAA@V?$vector@MV?$allocator@M@std@@@std@@@Z 0000000180010e18     diversity.obj
 0002:00002e34       $stateUnwindMap$??0WeightedCountArray@dis@@QEAA@V?$vector@MV?$allocator@M@std@@@std@@@Z 0000000180010e34     diversity.obj
 0002:00002e58       $ip2state$??0WeightedCountArray@dis@@QEAA@V?$vector@MV?$allocator@M@std@@@std@@@Z 0000000180010e58     diversity.obj
 0002:00002e90       $unwind$?CalcDiversityMap@@YAXV?$Mat@H@dis@@HHV?$vector@MV?$allocator@M@std@@@std@@AEAV?$Mat@M@2@@Z 0000000180010e90     diversity.obj
 0002:00002ec0       $stateUnwindMap$?CalcDiversityMap@@YAXV?$Mat@H@dis@@HHV?$vector@MV?$allocator@M@std@@@std@@AEAV?$Mat@M@2@@Z 0000000180010ec0     diversity.obj
 0002:00002ec8       $ip2state$?CalcDiversityMap@@YAXV?$Mat@H@dis@@HHV?$vector@MV?$allocator@M@std@@@std@@AEAV?$Mat@M@2@@Z 0000000180010ec8     diversity.obj
 0002:00002ee0       $unwind$?BuildWeightVector@@YA?AV?$vector@MV?$allocator@M@std@@@std@@V?$Mat@H@dis@@HH@Z 0000000180010ee0     diversity.obj
 0002:00002ef8       $unwind$?DiversityCount@dis@@YAXPEAPEAUmxArray_tag@@HPEAPEBU2@@Z 0000000180010ef8     diversity.obj
 0002:00002f24       $stateUnwindMap$?DiversityCount@dis@@YAXPEAPEAUmxArray_tag@@HPEAPEBU2@@Z 0000000180010f24     diversity.obj
 0002:00002f30       $ip2state$?DiversityCount@dis@@YAXPEAPEAUmxArray_tag@@HPEAPEBU2@@Z 0000000180010f30     diversity.obj
 0002:00002f48       $unwind$?WeightedDiversityCount@dis@@YAXPEAPEAUmxArray_tag@@HPEAPEBU2@@Z 0000000180010f48     diversity.obj
 0002:00002f74       $stateUnwindMap$?WeightedDiversityCount@dis@@YAXPEAPEAUmxArray_tag@@HPEAPEBU2@@Z 0000000180010f74     diversity.obj
 0002:00002fa0       $ip2state$?WeightedDiversityCount@dis@@YAXPEAPEAUmxArray_tag@@HPEAPEBU2@@Z 0000000180010fa0     diversity.obj
 0002:00002fe8       $unwind$??0?$vector@NV?$allocator@N@std@@@std@@QEAA@AEBV01@@Z 0000000180010fe8     deformableDiversity.obj
 0002:00002fe8       $unwind$??0?$vector@MV?$allocator@M@std@@@std@@QEAA@AEBV01@@Z 0000000180010fe8     diversity.obj
 0002:00002fe8       $unwind$??0?$vector@HV?$allocator@H@std@@@std@@QEAA@AEBV01@@Z 0000000180010fe8     deformableDiversity.obj
 0002:00002ff4       $unwind$?assign@?$basic_string@DU?$char_traits@D@std@@V?$allocator@D@2@@std@@QEAAAEAV12@AEBV12@_K1@Z 0000000180010ff4     diversity.obj
 0002:00003008       $unwind$?compare@?$basic_string@DU?$char_traits@D@std@@V?$allocator@D@2@@std@@QEBAHAEBV12@@Z 0000000180011008     mex_opencv_2.4:MxArray.obj
 0002:00003008       $unwind$??_G?$basic_ostringstream@DU?$char_traits@D@std@@V?$allocator@D@2@@std@@UEAAPEAXI@Z 0000000180011008     main.obj
 0002:00003008       $unwind$??_Etype_info@@UEAAPEAXI@Z 0000000180011008     MSVCRT:ti_inst.obj
 0002:00003008       $unwind$_DllMainCRTStartup 0000000180011008     MSVCRT:crtdll.obj
 0002:00003008       $unwind$?assign@?$basic_string@DU?$char_traits@D@std@@V?$allocator@D@2@@std@@QEAAAEAV12@PEBD_K@Z 0000000180011008     diversity.obj
 0002:00003008       $unwind$?_Construct_n@?$vector@NV?$allocator@N@std@@@std@@QEAAX_KPEBN@Z 0000000180011008     deformableDiversity.obj
 0002:00003008       $unwind$?_Erase@?$_Tree@V?$_Tmap_traits@HW4mxClassID@@U?$less@H@std@@V?$allocator@U?$pair@$$CBHW4mxClassID@@@std@@@3@$0A@@std@@@std@@IEAAXPEAU?$_Tree_node@U?$pair@$$CBHW4mxClassID@@@std@@PEAX@2@@Z 0000000180011008     mex_opencv_2.4:MxArray.obj
 0002:00003008       $unwind$?_Erase@?$_Tree@V?$_Tmap_traits@W4mxClassID@@HU?$less@W4mxClassID@@@std@@V?$allocator@U?$pair@$$CBW4mxClassID@@H@std@@@3@$0A@@std@@@std@@IEAAXPEAU?$_Tree_node@U?$pair@$$CBW4mxClassID@@H@std@@PEAX@2@@Z 0000000180011008     mex_opencv_2.4:MxArray.obj
 0002:00003008       $unwind$?_Construct_n@?$vector@HV?$allocator@H@std@@@std@@QEAAX_KPEBH@Z 0000000180011008     diversity.obj
 0002:00003008       $unwind$?_Construct_n@?$vector@MV?$allocator@M@std@@@std@@QEAAX_KPEBM@Z 0000000180011008     diversity.obj
 0002:00003018       $chain$0$?_Buy@?$vector@HV?$allocator@H@std@@@std@@IEAA_N_K@Z 0000000180011018     diversity.obj
 0002:00003018       $chain$0$?_Buy@?$vector@MV?$allocator@M@std@@@std@@IEAA_N_K@Z 0000000180011018     diversity.obj
 0002:0000302c       $chain$1$?_Buy@?$vector@MV?$allocator@M@std@@@std@@IEAA_N_K@Z 000000018001102c     diversity.obj
 0002:0000302c       $chain$1$?_Buy@?$vector@HV?$allocator@H@std@@@std@@IEAA_N_K@Z 000000018001102c     diversity.obj
 0002:0000303c       $chain$2$?_Buy@?$vector@MV?$allocator@M@std@@@std@@IEAA_N_K@Z 000000018001103c     diversity.obj
 0002:0000303c       $chain$2$?_Buy@?$vector@HV?$allocator@H@std@@@std@@IEAA_N_K@Z 000000018001103c     diversity.obj
 0002:00003050       $unwind$?_Grow@?$basic_string@DU?$char_traits@D@std@@V?$allocator@D@2@@std@@QEAA_N_K_N@Z 0000000180011050     diversity.obj
 0002:00003060       $chain$1$?_Grow@?$basic_string@DU?$char_traits@D@std@@V?$allocator@D@2@@std@@QEAA_N_K_N@Z 0000000180011060     diversity.obj
 0002:00003074       $chain$2$?_Grow@?$basic_string@DU?$char_traits@D@std@@V?$allocator@D@2@@std@@QEAA_N_K_N@Z 0000000180011074     diversity.obj
 0002:00003088       $chain$3$?_Grow@?$basic_string@DU?$char_traits@D@std@@V?$allocator@D@2@@std@@QEAA_N_K_N@Z 0000000180011088     diversity.obj
 0002:00003098       $chain$4$?_Grow@?$basic_string@DU?$char_traits@D@std@@V?$allocator@D@2@@std@@QEAA_N_K_N@Z 0000000180011098     diversity.obj
 0002:000030a8       $unwind$?_Copy@?$basic_string@DU?$char_traits@D@std@@V?$allocator@D@2@@std@@QEAAX_K0@Z 00000001800110a8     diversity.obj
 0002:000030c0       $stateUnwindMap$?_Copy@?$basic_string@DU?$char_traits@D@std@@V?$allocator@D@2@@std@@QEAAX_K0@Z 00000001800110c0     diversity.obj
 0002:000030e0       $tryMap$?_Copy@?$basic_string@DU?$char_traits@D@std@@V?$allocator@D@2@@std@@QEAAX_K0@Z 00000001800110e0     diversity.obj
 0002:00003108       $handlerMap$0$?_Copy@?$basic_string@DU?$char_traits@D@std@@V?$allocator@D@2@@std@@QEAAX_K0@Z 0000000180011108     diversity.obj
 0002:0000311c       $handlerMap$1$?_Copy@?$basic_string@DU?$char_traits@D@std@@V?$allocator@D@2@@std@@QEAAX_K0@Z 000000018001111c     diversity.obj
 0002:00003130       $ip2state$?_Copy@?$basic_string@DU?$char_traits@D@std@@V?$allocator@D@2@@std@@QEAAX_K0@Z 0000000180011130     diversity.obj
 0002:00003170       $unwind$?catch$1@?0??_Copy@?$basic_string@DU?$char_traits@D@std@@V?$allocator@D@2@@std@@QEAAX_K0@Z@4HA 0000000180011170     diversity.obj
 0002:00003180       $unwind$?catch$0@?0??_Copy@?$basic_string@DU?$char_traits@D@std@@V?$allocator@D@2@@std@@QEAAX_K0@Z@4HA 0000000180011180     diversity.obj
 0002:00003194       $unwind$??$toVector@M@MxArray@@QEBA?AV?$vector@MV?$allocator@M@std@@@std@@XZ 0000000180011194     diversity.obj
 0002:000031ac       $unwind$??0?$vector@MV?$allocator@M@std@@@std@@QEAA@_K@Z 00000001800111ac     diversity.obj
 0002:000031b8       $chain$0$??0?$vector@MV?$allocator@M@std@@@std@@QEAA@_K@Z 00000001800111b8     diversity.obj
 0002:000031cc       $chain$1$??0?$vector@MV?$allocator@M@std@@@std@@QEAA@_K@Z 00000001800111cc     diversity.obj
 0002:000031dc       $unwind$??__E?All@DiversityTypes@@2V?$vector@PEBDV?$allocator@PEBD@std@@@std@@A@@YAXXZ 00000001800111dc     main.obj
 0002:000031e4       $unwind$??$conditional_aligned_new_auto@H$00@internal@Eigen@@YAPEAH_K@Z 00000001800111e4     deformableDiversity.obj
 0002:000031e4       $unwind$atexit             00000001800111e4     MSVCRT:atonexit.obj
 0002:000031e4       $unwind$?_Buyheadnode@?$_Tree_alloc@$0A@U?$_Tree_base_types@U?$pair@$$CBHW4mxClassID@@@std@@V?$allocator@U?$pair@$$CBHW4mxClassID@@@std@@@2@@std@@@std@@QEAAPEAU?$_Tree_node@U?$pair@$$CBHW4mxClassID@@@std@@PEAX@2@XZ 00000001800111e4     mex_opencv_2.4:MxArray.obj
 0002:000031e4       $unwind$??__Etictoc_stack@@YAXXZ 00000001800111e4     tictoc.obj
 0002:000031e4       $unwind$??__F?All@DiversityTypes@@2V?$vector@PEBDV?$allocator@PEBD@std@@@std@@A@@YAXXZ 00000001800111e4     main.obj
 0002:000031e4       $unwind$?_Buyheadnode@?$_Tree_alloc@$0A@U?$_Tree_base_types@U?$pair@$$CBV?$basic_string@DU?$char_traits@D@std@@V?$allocator@D@2@@std@@H@std@@V?$allocator@U?$pair@$$CBV?$basic_string@DU?$char_traits@D@std@@V?$allocator@D@2@@std@@H@std@@@2@@std@@@std@@QEAAPEAU?$_Tree_node@U?$pair@$$CBV?$basic_string@DU?$char_traits@D@std@@V?$allocator@D@2@@std@@H@std@@PEAX@2@XZ 00000001800111e4     mex_opencv_2.4:MxArray.obj
 0002:000031e4       $unwind$??1thread@std@@QEAA@XZ 00000001800111e4     deformableDiversity.obj
 0002:000031e4       $unwind$__GSHandlerCheck   00000001800111e4     MSVCRT:gshandler.obj
 0002:000031e4       $unwind$?_Buyheadnode@?$_Tree_alloc@$0A@U?$_Tree_base_types@U?$pair@$$CBHV?$basic_string@DU?$char_traits@D@std@@V?$allocator@D@2@@std@@@std@@V?$allocator@U?$pair@$$CBHV?$basic_string@DU?$char_traits@D@std@@V?$allocator@D@2@@std@@@std@@@2@@std@@@std@@QEAAPEAU?$_Tree_node@U?$pair@$$CBHV?$basic_string@DU?$char_traits@D@std@@V?$allocator@D@2@@std@@@std@@PEAX@2@XZ 00000001800111e4     mex_opencv_2.4:MxArray.obj
 0002:000031e4       $unwind$DllMain            00000001800111e4     MSVCRT:dllmain.obj
 0002:000031e4       $unwind$??__Ftictoc_stack@@YAXXZ 00000001800111e4     tictoc.obj
 0002:000031e4       $unwind$?_Buyheadnode@?$_Tree_alloc@$0A@U?$_Tree_base_types@U?$pair@$$CBW4mxClassID@@H@std@@V?$allocator@U?$pair@$$CBW4mxClassID@@H@std@@@2@@std@@@std@@QEAAPEAU?$_Tree_node@U?$pair@$$CBW4mxClassID@@H@std@@PEAX@2@XZ 00000001800111e4     mex_opencv_2.4:MxArray.obj
 0002:000031ec       $unwind$?excapsulate@@YA?AV?$basic_string@DU?$char_traits@D@std@@V?$allocator@D@2@@std@@V12@0@Z 00000001800111ec     main.obj
 0002:00003208       $stateUnwindMap$?excapsulate@@YA?AV?$basic_string@DU?$char_traits@D@std@@V?$allocator@D@2@@std@@V12@0@Z 0000000180011208     main.obj
 0002:00003220       $ip2state$?excapsulate@@YA?AV?$basic_string@DU?$char_traits@D@std@@V?$allocator@D@2@@std@@V12@0@Z 0000000180011220     main.obj
 0002:00003250       $unwind$?BuildInputErrMessage@@YA?AV?$basic_string@DU?$char_traits@D@std@@V?$allocator@D@2@@std@@XZ 0000000180011250     main.obj
 0002:00003278       $stateUnwindMap$?BuildInputErrMessage@@YA?AV?$basic_string@DU?$char_traits@D@std@@V?$allocator@D@2@@std@@XZ 0000000180011278     main.obj
 0002:000032c0       $ip2state$?BuildInputErrMessage@@YA?AV?$basic_string@DU?$char_traits@D@std@@V?$allocator@D@2@@std@@XZ 00000001800112c0     main.obj
 0002:00003348       $unwind$mexFunction        0000000180011348     main.obj
 0002:0000336c       $stateUnwindMap$mexFunction 000000018001136c     main.obj
 0002:000033d4       $tryMap$mexFunction        00000001800113d4     main.obj
 0002:000033fc       $handlerMap$0$mexFunction  00000001800113fc     main.obj
 0002:00003410       $handlerMap$1$mexFunction  0000000180011410     main.obj
 0002:00003430       $ip2state$mexFunction      0000000180011430     main.obj
 0002:00003520       $unwind$mexFunction$catch$0 0000000180011520     main.obj
 0002:00003534       $unwind$mexFunction$catch$1 0000000180011534     main.obj
 0002:00003544       $unwind$??0?$vector@PEBDV?$allocator@PEBD@std@@@std@@QEAA@AEBV01@@Z 0000000180011544     main.obj
 0002:00003550       $unwind$??0?$basic_ostringstream@DU?$char_traits@D@std@@V?$allocator@D@2@@std@@QEAA@H@Z 0000000180011550     main.obj
 0002:00003564       $stateUnwindMap$??0?$basic_ostringstream@DU?$char_traits@D@std@@V?$allocator@D@2@@std@@QEAA@H@Z 0000000180011564     main.obj
 0002:00003580       $ip2state$??0?$basic_ostringstream@DU?$char_traits@D@std@@V?$allocator@D@2@@std@@QEAA@H@Z 0000000180011580     main.obj
 0002:000035a8       $unwind$?dtor$0@?0???$?HDU?$char_traits@D@std@@V?$allocator@D@1@@std@@YA?AV?$basic_string@DU?$char_traits@D@std@@V?$allocator@D@2@@0@AEBV10@0@Z@4HA 00000001800115a8     main.obj
 0002:000035a8       $unwind$_IsNonwritableInCurrentImage$filt$0 00000001800115a8     MSVCRT:pesect.obj
 0002:000035a8       $unwind$?dtor$0@?0???$_Buynode@AEBUpiecewise_construct_t@std@@V?$tuple@AEBV?$basic_string@DU?$char_traits@D@std@@V?$allocator@D@2@@std@@@2@V?$tuple@$$$V@2@@?$_Tree_buy@U?$pair@$$CBV?$basic_string@DU?$char_traits@D@std@@V?$allocator@D@2@@std@@H@std@@V?$allocator@U?$pair@$$CBV?$basic_string@DU?$char_traits@D@std@@V?$allocator@D@2@@std@@H@std@@@2@@std@@QEAAPEAU?$_Tree_node@U?$pair@$$CBV?$basic_string@DU?$char_traits@D@std@@V?$allocator@D@2@@std@@H@std@@PEAX@1@AEBUpiecewise_construct_t@1@$$QEAV?$tuple@AEBV?$basic_string@DU?$char_traits@D@std@@V?$allocator@D@2@@std@@@1@$$QEAV?$tuple@$$$V@1@@Z@4HA 00000001800115a8     mex_opencv_2.4:MxArray.obj
 0002:000035a8       $unwind$?filt$0@?0??__ArrayUnwind@@YAXPEAX_KHP6AX0@Z@Z@4HA 00000001800115a8     MSVCRT:ehvecdtr.obj
 0002:000035a8       $unwind$?dtor$0@?0???$_Buynode@AEAU?$pair@$$CBV?$basic_string@DU?$char_traits@D@std@@V?$allocator@D@2@@std@@H@std@@@?$_Tree_buy@U?$pair@$$CBV?$basic_string@DU?$char_traits@D@std@@V?$allocator@D@2@@std@@H@std@@V?$allocator@U?$pair@$$CBV?$basic_string@DU?$char_traits@D@std@@V?$allocator@D@2@@std@@H@std@@@2@@std@@QEAAPEAU?$_Tree_node@U?$pair@$$CBV?$basic_string@DU?$char_traits@D@std@@V?$allocator@D@2@@std@@H@std@@PEAX@1@AEAU?$pair@$$CBV?$basic_string@DU?$char_traits@D@std@@V?$allocator@D@2@@std@@H@1@@Z@4HA 00000001800115a8     mex_opencv_2.4:MxArray.obj
 0002:000035a8       $unwind$__DllMainCRTStartup$filt$0 00000001800115a8     MSVCRT:crtdll.obj
 0002:000035a8       $unwind$_onexit$fin$0      00000001800115a8     MSVCRT:atonexit.obj
 0002:000035a8       $unwind$?dtor$0@?0???$_Buynode@AEAU?$pair@$$CBHV?$basic_string@DU?$char_traits@D@std@@V?$allocator@D@2@@std@@@std@@@?$_Tree_buy@U?$pair@$$CBHV?$basic_string@DU?$char_traits@D@std@@V?$allocator@D@2@@std@@@std@@V?$allocator@U?$pair@$$CBHV?$basic_string@DU?$char_traits@D@std@@V?$allocator@D@2@@std@@@std@@@2@@std@@QEAAPEAU?$_Tree_node@U?$pair@$$CBHV?$basic_string@DU?$char_traits@D@std@@V?$allocator@D@2@@std@@@std@@PEAX@1@AEAU?$pair@$$CBHV?$basic_string@DU?$char_traits@D@std@@V?$allocator@D@2@@std@@@1@@Z@4HA 00000001800115a8     mex_opencv_2.4:MxArray.obj
 0002:000035a8       $unwind$__DllMainCRTStartup$fin$1 00000001800115a8     MSVCRT:crtdll.obj
 0002:000035a8       $unwind$?fin$0@?0???_M@YAXPEAX_KHP6AX0@Z@Z@4HA 00000001800115a8     MSVCRT:ehvecdtr.obj
 0002:000035a8       $unwind$?dtor$0@?0???0?$basic_ostringstream@DU?$char_traits@D@std@@V?$allocator@D@2@@std@@QEAA@H@Z@4HA 00000001800115a8     main.obj
 0002:000035b0       $unwind$?overflow@?$basic_stringbuf@DU?$char_traits@D@std@@V?$allocator@D@2@@std@@MEAAHH@Z 00000001800115b0     main.obj
 0002:000035bc       $chain$0$?overflow@?$basic_stringbuf@DU?$char_traits@D@std@@V?$allocator@D@2@@std@@MEAAHH@Z 00000001800115bc     main.obj
 0002:000035d0       $chain$5$?overflow@?$basic_stringbuf@DU?$char_traits@D@std@@V?$allocator@D@2@@std@@MEAAHH@Z 00000001800115d0     main.obj
 0002:000035f0       $unwind$?seekoff@?$basic_stringbuf@DU?$char_traits@D@std@@V?$allocator@D@2@@std@@MEAA?AV?$fpos@H@2@_JHH@Z 00000001800115f0     main.obj
 0002:00003600       $unwind$?seekpos@?$basic_stringbuf@DU?$char_traits@D@std@@V?$allocator@D@2@@std@@MEAA?AV?$fpos@H@2@V32@H@Z 0000000180011600     main.obj
 0002:00003608       $chain$0$?seekpos@?$basic_stringbuf@DU?$char_traits@D@std@@V?$allocator@D@2@@std@@MEAA?AV?$fpos@H@2@V32@H@Z 0000000180011608     main.obj
 0002:0000361c       $chain$1$?seekpos@?$basic_stringbuf@DU?$char_traits@D@std@@V?$allocator@D@2@@std@@MEAA?AV?$fpos@H@2@V32@H@Z 000000018001161c     main.obj
 0002:0000362c       $unwind$?append@?$basic_string@DU?$char_traits@D@std@@V?$allocator@D@2@@std@@QEAAAEAV12@AEBV12@_K1@Z 000000018001162c     main.obj
 0002:00003644       $unwind$?append@?$basic_string@DU?$char_traits@D@std@@V?$allocator@D@2@@std@@QEAAAEAV12@PEBD_K@Z 0000000180011644     main.obj
 0002:00003658       $unwind$?str@?$basic_stringbuf@DU?$char_traits@D@std@@V?$allocator@D@2@@std@@QEBA?AV?$basic_string@DU?$char_traits@D@std@@V?$allocator@D@2@@2@XZ 0000000180011658     main.obj
 0002:00003670       $unwind$??$?HDU?$char_traits@D@std@@V?$allocator@D@1@@std@@YA?AV?$basic_string@DU?$char_traits@D@std@@V?$allocator@D@2@@0@AEBV10@0@Z 0000000180011670     main.obj
 0002:0000368c       $stateUnwindMap$??$?HDU?$char_traits@D@std@@V?$allocator@D@1@@std@@YA?AV?$basic_string@DU?$char_traits@D@std@@V?$allocator@D@2@@0@AEBV10@0@Z 000000018001168c     main.obj
 0002:00003698       $ip2state$??$?HDU?$char_traits@D@std@@V?$allocator@D@1@@std@@YA?AV?$basic_string@DU?$char_traits@D@std@@V?$allocator@D@2@@0@AEBV10@0@Z 0000000180011698     main.obj
 0002:000036a8       $unwind$??$?6U?$char_traits@D@std@@@std@@YAAEAV?$basic_ostream@DU?$char_traits@D@std@@@0@AEAV10@PEBD@Z 00000001800116a8     main.obj
 0002:000036c4       $stateUnwindMap$??$?6U?$char_traits@D@std@@@std@@YAAEAV?$basic_ostream@DU?$char_traits@D@std@@@0@AEAV10@PEBD@Z 00000001800116c4     main.obj
 0002:000036e4       $tryMap$??$?6U?$char_traits@D@std@@@std@@YAAEAV?$basic_ostream@DU?$char_traits@D@std@@@0@AEAV10@PEBD@Z 00000001800116e4     main.obj
 0002:000036f8       $handlerMap$0$??$?6U?$char_traits@D@std@@@std@@YAAEAV?$basic_ostream@DU?$char_traits@D@std@@@0@AEAV10@PEBD@Z 00000001800116f8     main.obj
 0002:00003710       $ip2state$??$?6U?$char_traits@D@std@@@std@@YAAEAV?$basic_ostream@DU?$char_traits@D@std@@@0@AEAV10@PEBD@Z 0000000180011710     main.obj
 0002:00003758       $unwind$?catch$0@?0???$?6U?$char_traits@D@std@@@std@@YAAEAV?$basic_ostream@DU?$char_traits@D@std@@@0@AEAV10@PEBD@Z@4HA 0000000180011758     main.obj
 0002:00003768       $unwind$??$?6DU?$char_traits@D@std@@V?$allocator@D@1@@std@@YAAEAV?$basic_ostream@DU?$char_traits@D@std@@@0@AEAV10@AEBV?$basic_string@DU?$char_traits@D@std@@V?$allocator@D@2@@0@@Z 0000000180011768     main.obj
 0002:00003784       $stateUnwindMap$??$?6DU?$char_traits@D@std@@V?$allocator@D@1@@std@@YAAEAV?$basic_ostream@DU?$char_traits@D@std@@@0@AEAV10@AEBV?$basic_string@DU?$char_traits@D@std@@V?$allocator@D@2@@0@@Z 0000000180011784     main.obj
 0002:000037a4       $tryMap$??$?6DU?$char_traits@D@std@@V?$allocator@D@1@@std@@YAAEAV?$basic_ostream@DU?$char_traits@D@std@@@0@AEAV10@AEBV?$basic_string@DU?$char_traits@D@std@@V?$allocator@D@2@@0@@Z 00000001800117a4     main.obj
 0002:000037b8       $handlerMap$0$??$?6DU?$char_traits@D@std@@V?$allocator@D@1@@std@@YAAEAV?$basic_ostream@DU?$char_traits@D@std@@@0@AEAV10@AEBV?$basic_string@DU?$char_traits@D@std@@V?$allocator@D@2@@0@@Z 00000001800117b8     main.obj
 0002:000037d0       $ip2state$??$?6DU?$char_traits@D@std@@V?$allocator@D@1@@std@@YAAEAV?$basic_ostream@DU?$char_traits@D@std@@@0@AEAV10@AEBV?$basic_string@DU?$char_traits@D@std@@V?$allocator@D@2@@0@@Z 00000001800117d0     main.obj
 0002:00003818       $unwind$?catch$0@?0???$?6DU?$char_traits@D@std@@V?$allocator@D@1@@std@@YAAEAV?$basic_ostream@DU?$char_traits@D@std@@@0@AEAV10@AEBV?$basic_string@DU?$char_traits@D@std@@V?$allocator@D@2@@0@@Z@4HA 0000000180011818     main.obj
 0002:00003828       $unwind$??$?HDU?$char_traits@D@std@@V?$allocator@D@1@@std@@YA?AV?$basic_string@DU?$char_traits@D@std@@V?$allocator@D@2@@0@$$QEAV10@0@Z 0000000180011828     main.obj
 0002:00003830       $unwind$??$stringJoin@PEBD@@YA?AV?$basic_string@DU?$char_traits@D@std@@V?$allocator@D@2@@std@@V01@V?$vector@PEBDV?$allocator@PEBD@std@@@1@@Z 0000000180011830     main.obj
 0002:00003850       $stateUnwindMap$??$stringJoin@PEBD@@YA?AV?$basic_string@DU?$char_traits@D@std@@V?$allocator@D@2@@std@@V01@V?$vector@PEBDV?$allocator@PEBD@std@@@1@@Z 0000000180011850     main.obj
 0002:00003868       $ip2state$??$stringJoin@PEBD@@YA?AV?$basic_string@DU?$char_traits@D@std@@V?$allocator@D@2@@std@@V01@V?$vector@PEBDV?$allocator@PEBD@std@@@1@@Z 0000000180011868     main.obj
 0002:00003898       $unwind$??$?6U?$char_traits@D@std@@@std@@YAAEAV?$basic_ostream@DU?$char_traits@D@std@@@0@AEAV10@D@Z 0000000180011898     main.obj
 0002:000038b4       $stateUnwindMap$??$?6U?$char_traits@D@std@@@std@@YAAEAV?$basic_ostream@DU?$char_traits@D@std@@@0@AEAV10@D@Z 00000001800118b4     main.obj
 0002:000038d4       $tryMap$??$?6U?$char_traits@D@std@@@std@@YAAEAV?$basic_ostream@DU?$char_traits@D@std@@@0@AEAV10@D@Z 00000001800118d4     main.obj
 0002:000038e8       $handlerMap$0$??$?6U?$char_traits@D@std@@@std@@YAAEAV?$basic_ostream@DU?$char_traits@D@std@@@0@AEAV10@D@Z 00000001800118e8     main.obj
 0002:00003900       $ip2state$??$?6U?$char_traits@D@std@@@std@@YAAEAV?$basic_ostream@DU?$char_traits@D@std@@@0@AEAV10@D@Z 0000000180011900     main.obj
 0002:00003948       $unwind$?catch$0@?0???$?6U?$char_traits@D@std@@@std@@YAAEAV?$basic_ostream@DU?$char_traits@D@std@@@0@AEAV10@D@Z@4HA 0000000180011948     main.obj
 0002:00003958       $unwind$?_Erase@?$_Tree@V?$_Tmap_traits@V?$basic_string@DU?$char_traits@D@std@@V?$allocator@D@2@@std@@HU?$less@V?$basic_string@DU?$char_traits@D@std@@V?$allocator@D@2@@std@@@2@V?$allocator@U?$pair@$$CBV?$basic_string@DU?$char_traits@D@std@@V?$allocator@D@2@@std@@H@std@@@2@$0A@@std@@@std@@IEAAXPEAU?$_Tree_node@U?$pair@$$CBV?$basic_string@DU?$char_traits@D@std@@V?$allocator@D@2@@std@@H@std@@PEAX@2@@Z 0000000180011958     mex_opencv_2.4:MxArray.obj
 0002:00003958       $unwind$?_Erase@?$_Tree@V?$_Tmap_traits@HV?$basic_string@DU?$char_traits@D@std@@V?$allocator@D@2@@std@@U?$less@H@2@V?$allocator@U?$pair@$$CBHV?$basic_string@DU?$char_traits@D@std@@V?$allocator@D@2@@std@@@std@@@2@$0A@@std@@@std@@IEAAXPEAU?$_Tree_node@U?$pair@$$CBHV?$basic_string@DU?$char_traits@D@std@@V?$allocator@D@2@@std@@@std@@PEAX@2@@Z 0000000180011958     mex_opencv_2.4:MxArray.obj
 0002:00003958       $unwind$?insert@?$basic_string@DU?$char_traits@D@std@@V?$allocator@D@2@@std@@QEAAAEAV12@_KAEBV12@00@Z 0000000180011958     main.obj
 0002:00003968       $chain$0$?insert@?$basic_string@DU?$char_traits@D@std@@V?$allocator@D@2@@std@@QEAAAEAV12@_KAEBV12@00@Z 0000000180011968     main.obj
 0002:0000397c       $chain$1$?insert@?$basic_string@DU?$char_traits@D@std@@V?$allocator@D@2@@std@@QEAAAEAV12@_KAEBV12@00@Z 000000018001197c     main.obj
 0002:0000398c       $unwind$??$_Insert@PEBQEBD@?$vector@PEBDV?$allocator@PEBD@std@@@std@@QEAAXV?$_Vector_const_iterator@V?$_Vector_val@U?$_Simple_types@PEBD@std@@@std@@@1@PEBQEBD1Uforward_iterator_tag@1@@Z 000000018001198c     main.obj
 0002:00003998       $chain$1$??$_Insert@PEBQEBD@?$vector@PEBDV?$allocator@PEBD@std@@@std@@QEAAXV?$_Vector_const_iterator@V?$_Vector_val@U?$_Simple_types@PEBD@std@@@std@@@1@PEBQEBD1Uforward_iterator_tag@1@@Z 0000000180011998     main.obj
 0002:000039b0       $chain$2$??$_Insert@PEBQEBD@?$vector@PEBDV?$allocator@PEBD@std@@@std@@QEAAXV?$_Vector_const_iterator@V?$_Vector_val@U?$_Simple_types@PEBD@std@@@std@@@1@PEBQEBD1Uforward_iterator_tag@1@@Z 00000001800119b0     main.obj
 0002:000039c0       $chain$3$??$_Insert@PEBQEBD@?$vector@PEBDV?$allocator@PEBD@std@@@std@@QEAAXV?$_Vector_const_iterator@V?$_Vector_val@U?$_Simple_types@PEBD@std@@@std@@@1@PEBQEBD1Uforward_iterator_tag@1@@Z 00000001800119c0     main.obj
 0002:000039d8       $chain$4$??$_Insert@PEBQEBD@?$vector@PEBDV?$allocator@PEBD@std@@@std@@QEAAXV?$_Vector_const_iterator@V?$_Vector_val@U?$_Simple_types@PEBD@std@@@std@@@1@PEBQEBD1Uforward_iterator_tag@1@@Z 00000001800119d8     main.obj
 0002:000039ec       $unwind$??$_Rotate@PEAPEBD_JPEBD@std@@YAXPEAPEBD00PEA_J0@Z 00000001800119ec     main.obj
 0002:000039f8       $chain$0$??$_Rotate@PEAPEBD_JPEBD@std@@YAXPEAPEBD00PEA_J0@Z 00000001800119f8     main.obj
 0002:00003a0c       $chain$1$??$_Rotate@PEAPEBD_JPEBD@std@@YAXPEAPEBD00PEA_J0@Z 0000000180011a0c     main.obj
 0002:00003a1c       $unwind$?throw_std_bad_alloc@internal@Eigen@@YAXXZ 0000000180011a1c     deformableDiversity.obj
 0002:00003a24       $unwind$??0CountArray@dis@@QEAA@H@Z 0000000180011a24     deformableDiversity.obj
 0002:00003a38       $stateUnwindMap$??0CountArray@dis@@QEAA@H@Z 0000000180011a38     deformableDiversity.obj
 0002:00003a48       $ip2state$??0CountArray@dis@@QEAA@H@Z 0000000180011a48     deformableDiversity.obj
 0002:00003a70       $unwind$??0DeformableDiversityWeightArray@dis@@QEAA@HN@Z 0000000180011a70     deformableDiversity.obj
 0002:00003a8c       $stateUnwindMap$??0DeformableDiversityWeightArray@dis@@QEAA@HN@Z 0000000180011a8c     deformableDiversity.obj
 0002:00003aa8       $ip2state$??0DeformableDiversityWeightArray@dis@@QEAA@HN@Z 0000000180011aa8     deformableDiversity.obj
 0002:00003ad8       $unwind$?calculateOneWindowScore@@YANAEAV?$Window@H@dis@@AEBV?$Map@V?$Matrix@H$0?0$0?0$0A@$0?0$0?0@Eigen@@$0A@V?$Stride@$0A@$0A@@2@@Eigen@@VDeformableDiversityWeightArray@2@@Z 0000000180011ad8     deformableDiversity.obj
 0002:00003b04       $unwind$?CalcDDISRasterScan@@YAXV?$Mat@H@dis@@HHAEBV?$Map@V?$Matrix@H$0?0$0?0$0A@$0?0$0?0@Eigen@@$0A@V?$Stride@$0A@$0A@@2@@Eigen@@NAEAV?$Mat@M@2@HHPEAH@Z 0000000180011b04     deformableDiversity.obj
 0002:00003b2c       $stateUnwindMap$?CalcDDISRasterScan@@YAXV?$Mat@H@dis@@HHAEBV?$Map@V?$Matrix@H$0?0$0?0$0A@$0?0$0?0@Eigen@@$0A@V?$Stride@$0A@$0A@@2@@Eigen@@NAEAV?$Mat@M@2@HHPEAH@Z 0000000180011b2c     deformableDiversity.obj
 0002:00003b60       $ip2state$?CalcDDISRasterScan@@YAXV?$Mat@H@dis@@HHAEBV?$Map@V?$Matrix@H$0?0$0?0$0A@$0?0$0?0@Eigen@@$0A@V?$Stride@$0A@$0A@@2@@Eigen@@NAEAV?$Mat@M@2@HHPEAH@Z 0000000180011b60     deformableDiversity.obj
 0002:00003bc8       $unwind$?CalcDDISRasterScan_ThreadFunc@@YAXUddisScanParams@@@Z 0000000180011bc8     deformableDiversity.obj
 0002:00003bd0       $unwind$?LoadXyPositions@@YA?AV?$Map@V?$Matrix@H$0?0$0?0$0A@$0?0$0?0@Eigen@@$0A@V?$Stride@$0A@$0A@@2@@Eigen@@PEAPEBUmxArray_tag@@@Z 0000000180011bd0     deformableDiversity.obj
 0002:00003bf0       $stateUnwindMap$?LoadXyPositions@@YA?AV?$Map@V?$Matrix@H$0?0$0?0$0A@$0?0$0?0@Eigen@@$0A@V?$Stride@$0A@$0A@@2@@Eigen@@PEAPEBUmxArray_tag@@@Z 0000000180011bf0     deformableDiversity.obj
 0002:00003bf8       $ip2state$?LoadXyPositions@@YA?AV?$Map@V?$Matrix@H$0?0$0?0$0A@$0?0$0?0@Eigen@@$0A@V?$Stride@$0A@$0A@@2@@Eigen@@PEAPEBUmxArray_tag@@@Z 0000000180011bf8     deformableDiversity.obj
 0002:00003c10       $unwind$?DeformableDiversity@dis@@YAXPEAPEAUmxArray_tag@@HPEAPEBU2@I@Z 0000000180011c10     deformableDiversity.obj
 0002:00003c3c       $stateUnwindMap$?DeformableDiversity@dis@@YAXPEAPEAUmxArray_tag@@HPEAPEBU2@I@Z 0000000180011c3c     deformableDiversity.obj
 0002:00003c60       $ip2state$?DeformableDiversity@dis@@YAXPEAPEAUmxArray_tag@@HPEAPEBU2@I@Z 0000000180011c60     deformableDiversity.obj
 0002:00003cb8       $unwind$?toString@MxArray@@QEBA?AV?$basic_string@DU?$char_traits@D@std@@V?$allocator@D@2@@std@@XZ 0000000180011cb8     mex_opencv_2.4:MxArray.obj
 0002:00003cb8       $unwind$??0?$vector@Vthread@std@@V?$allocator@Vthread@std@@@2@@std@@QEAA@_K@Z 0000000180011cb8     deformableDiversity.obj
 0002:00003cc8       $chain$0$?_Buy@?$vector@NV?$allocator@N@std@@@std@@IEAA_N_K@Z 0000000180011cc8     deformableDiversity.obj
 0002:00003cdc       $chain$1$?_Buy@?$vector@NV?$allocator@N@std@@@std@@IEAA_N_K@Z 0000000180011cdc     deformableDiversity.obj
 0002:00003cec       $chain$2$?_Buy@?$vector@NV?$allocator@N@std@@@std@@IEAA_N_K@Z 0000000180011cec     deformableDiversity.obj
 0002:00003d00       $unwind$?run@?$inplace_transpose_selector@V?$Map@V?$Matrix@H$0?0$0?0$0A@$0?0$0?0@Eigen@@$0A@V?$Stride@$0A@$0A@@2@@Eigen@@$0A@@internal@Eigen@@SAXAEAV?$Map@V?$Matrix@H$0?0$0?0$0A@$0?0$0?0@Eigen@@$0A@V?$Stride@$0A@$0A@@2@@3@@Z 0000000180011d00     deformableDiversity.obj
 0002:00003d10       $unwind$?eval@?$DenseBase@V?$Transpose@V?$Map@V?$Matrix@H$0?0$0?0$0A@$0?0$0?0@Eigen@@$0A@V?$Stride@$0A@$0A@@2@@Eigen@@@Eigen@@@Eigen@@QEBA?BV?$Matrix@H$0?0$0?0$00$0?0$0?0@2@XZ 0000000180011d10     deformableDiversity.obj
 0002:00003d2c       $stateUnwindMap$?eval@?$DenseBase@V?$Transpose@V?$Map@V?$Matrix@H$0?0$0?0$0A@$0?0$0?0@Eigen@@$0A@V?$Stride@$0A@$0A@@2@@Eigen@@@Eigen@@@Eigen@@QEBA?BV?$Matrix@H$0?0$0?0$00$0?0$0?0@2@XZ 0000000180011d2c     deformableDiversity.obj
 0002:00003d38       $ip2state$?eval@?$DenseBase@V?$Transpose@V?$Map@V?$Matrix@H$0?0$0?0$0A@$0?0$0?0@Eigen@@$0A@V?$Stride@$0A@$0A@@2@@Eigen@@@Eigen@@@Eigen@@QEBA?BV?$Matrix@H$0?0$0?0$00$0?0$0?0@2@XZ 0000000180011d38     deformableDiversity.obj
 0002:00003d50       $unwind$?_Go@?$_LaunchPad@V?$_Bind@$00XQ6AXUddisScanParams@@@ZV?$reference_wrapper@UddisScanParams@@@std@@@std@@@std@@UEAAIXZ 0000000180011d50     deformableDiversity.obj
 0002:00003d5c       $chain$0$??$conditional_aligned_new_auto@H$00@internal@Eigen@@YAPEAH_K@Z 0000000180011d5c     deformableDiversity.obj
 0002:00003d70       $chain$1$??$conditional_aligned_new_auto@H$00@internal@Eigen@@YAPEAH_K@Z 0000000180011d70     deformableDiversity.obj
 0002:00003d80       $chain$2$??$conditional_aligned_new_auto@H$00@internal@Eigen@@YAPEAH_K@Z 0000000180011d80     deformableDiversity.obj
 0002:00003d94       $unwind$?run@?$triangular_assignment_selector@V?$SwapWrapper@V?$Map@V?$Matrix@H$0?0$0?0$0A@$0?0$0?0@Eigen@@$0A@V?$Stride@$0A@$0A@@2@@Eigen@@@Eigen@@V?$Transpose@V?$Map@V?$Matrix@H$0?0$0?0$0A@$0?0$0?0@Eigen@@$0A@V?$Stride@$0A@$0A@@2@@Eigen@@@2@$09$0?0$0A@@internal@Eigen@@SAXAEAV?$SwapWrapper@V?$Map@V?$Matrix@H$0?0$0?0$0A@$0?0$0?0@Eigen@@$0A@V?$Stride@$0A@$0A@@2@@Eigen@@@3@AEBV?$Transpose@V?$Map@V?$Matrix@H$0?0$0?0$0A@$0?0$0?0@Eigen@@$0A@V?$Stride@$0A@$0A@@2@@Eigen@@@3@@Z 0000000180011d94     deformableDiversity.obj
 0002:00003da8       $chain$0$?run@?$triangular_assignment_selector@V?$SwapWrapper@V?$Map@V?$Matrix@H$0?0$0?0$0A@$0?0$0?0@Eigen@@$0A@V?$Stride@$0A@$0A@@2@@Eigen@@@Eigen@@V?$Transpose@V?$Map@V?$Matrix@H$0?0$0?0$0A@$0?0$0?0@Eigen@@$0A@V?$Stride@$0A@$0A@@2@@Eigen@@@2@$09$0?0$0A@@internal@Eigen@@SAXAEAV?$SwapWrapper@V?$Map@V?$Matrix@H$0?0$0?0$0A@$0?0$0?0@Eigen@@$0A@V?$Stride@$0A@$0A@@2@@Eigen@@@3@AEBV?$Transpose@V?$Map@V?$Matrix@H$0?0$0?0$0A@$0?0$0?0@Eigen@@$0A@V?$Stride@$0A@$0A@@2@@Eigen@@@3@@Z 0000000180011da8     deformableDiversity.obj
 0002:00003dbc       $chain$1$?run@?$triangular_assignment_selector@V?$SwapWrapper@V?$Map@V?$Matrix@H$0?0$0?0$0A@$0?0$0?0@Eigen@@$0A@V?$Stride@$0A@$0A@@2@@Eigen@@@Eigen@@V?$Transpose@V?$Map@V?$Matrix@H$0?0$0?0$0A@$0?0$0?0@Eigen@@$0A@V?$Stride@$0A@$0A@@2@@Eigen@@@2@$09$0?0$0A@@internal@Eigen@@SAXAEAV?$SwapWrapper@V?$Map@V?$Matrix@H$0?0$0?0$0A@$0?0$0?0@Eigen@@$0A@V?$Stride@$0A@$0A@@2@@Eigen@@@3@AEBV?$Transpose@V?$Map@V?$Matrix@H$0?0$0?0$0A@$0?0$0?0@Eigen@@$0A@V?$Stride@$0A@$0A@@2@@Eigen@@@3@@Z 0000000180011dbc     deformableDiversity.obj
 0002:00003dcc       $unwind$?push_back@?$deque@JV?$allocator@J@std@@@std@@QEAAX$$QEAJ@Z 0000000180011dcc     tictoc.obj
 0002:00003de0       $unwind$?_Tidy@?$deque@JV?$allocator@J@std@@@std@@IEAAXXZ 0000000180011de0     tictoc.obj
 0002:00003df0       $unwind$?_Growmap@?$deque@JV?$allocator@J@std@@@std@@IEAAX_K@Z 0000000180011df0     tictoc.obj
 0002:00003dfc       $chain$1$?_Growmap@?$deque@JV?$allocator@J@std@@@std@@IEAAX_K@Z 0000000180011dfc     tictoc.obj
 0002:00003e14       $chain$2$?_Growmap@?$deque@JV?$allocator@J@std@@@std@@IEAAX_K@Z 0000000180011e14     tictoc.obj
 0002:00003e28       $chain$3$?_Growmap@?$deque@JV?$allocator@J@std@@@std@@IEAAX_K@Z 0000000180011e28     tictoc.obj
 0002:00003e3c       $chain$4$?_Growmap@?$deque@JV?$allocator@J@std@@@std@@IEAAX_K@Z 0000000180011e3c     tictoc.obj
 0002:00003e4c       $chain$5$?_Growmap@?$deque@JV?$allocator@J@std@@@std@@IEAAX_K@Z 0000000180011e4c     tictoc.obj
 0002:00003e4c       $chain$7$?_Growmap@?$deque@JV?$allocator@J@std@@@std@@IEAAX_K@Z 0000000180011e4c     tictoc.obj
 0002:00003e5c       $chain$6$?_Growmap@?$deque@JV?$allocator@J@std@@@std@@IEAAX_K@Z 0000000180011e5c     tictoc.obj
 0002:00003e70       $chain$8$?_Growmap@?$deque@JV?$allocator@J@std@@@std@@IEAAX_K@Z 0000000180011e70     tictoc.obj
 0002:00003e80       $unwind$??__EDepthOf@?A0x6487b33d@@YAXXZ 0000000180011e80     mex_opencv_2.4:MxArray.obj
 0002:00003e98       $stateUnwindMap$??__EDepthOf@?A0x6487b33d@@YAXXZ 0000000180011e98     mex_opencv_2.4:MxArray.obj
 0002:00003e98       $stateUnwindMap$??__EClassIDOf@?A0x6487b33d@@YAXXZ 0000000180011e98     mex_opencv_2.4:MxArray.obj
 0002:00003ea8       $ip2state$??__EDepthOf@?A0x6487b33d@@YAXXZ 0000000180011ea8     mex_opencv_2.4:MxArray.obj
 0002:00003ec8       $unwind$??__EClassIDOf@?A0x6487b33d@@YAXXZ 0000000180011ec8     mex_opencv_2.4:MxArray.obj
 0002:00003ee0       $ip2state$??__EClassIDOf@?A0x6487b33d@@YAXXZ 0000000180011ee0     mex_opencv_2.4:MxArray.obj
 0002:00003f00       $unwind$??__EInvTermCritType@?A0x6487b33d@@YAXXZ 0000000180011f00     mex_opencv_2.4:MxArray.obj
 0002:00003f18       $stateUnwindMap$??__EInvTermCritType@?A0x6487b33d@@YAXXZ 0000000180011f18     mex_opencv_2.4:MxArray.obj
 0002:00003f40       $ip2state$??__EInvTermCritType@?A0x6487b33d@@YAXXZ 0000000180011f40     mex_opencv_2.4:MxArray.obj
 0002:00003f90       $unwind$??__ETermCritType@?A0x6487b33d@@YAXXZ 0000000180011f90     mex_opencv_2.4:MxArray.obj
 0002:00003fb0       $stateUnwindMap$??__ETermCritType@?A0x6487b33d@@YAXXZ 0000000180011fb0     mex_opencv_2.4:MxArray.obj
 0002:00003fe0       $ip2state$??__ETermCritType@?A0x6487b33d@@YAXXZ 0000000180011fe0     mex_opencv_2.4:MxArray.obj
 0002:00004030       $unwind$??0?$_Tree@V?$_Tmap_traits@V?$basic_string@DU?$char_traits@D@std@@V?$allocator@D@2@@std@@HU?$less@V?$basic_string@DU?$char_traits@D@std@@V?$allocator@D@2@@std@@@2@V?$allocator@U?$pair@$$CBV?$basic_string@DU?$char_traits@D@std@@V?$allocator@D@2@@std@@H@std@@@2@$0A@@std@@@std@@QEAA@AEBV01@AEBV?$allocator@U?$pair@$$CBV?$basic_string@DU?$char_traits@D@std@@V?$allocator@D@2@@std@@H@std@@@1@@Z 0000000180012030     mex_opencv_2.4:MxArray.obj
 0002:00004040       $stateUnwindMap$??0?$_Tree@V?$_Tmap_traits@V?$basic_string@DU?$char_traits@D@std@@V?$allocator@D@2@@std@@HU?$less@V?$basic_string@DU?$char_traits@D@std@@V?$allocator@D@2@@std@@@2@V?$allocator@U?$pair@$$CBV?$basic_string@DU?$char_traits@D@std@@V?$allocator@D@2@@std@@H@std@@@2@$0A@@std@@@std@@QEAA@AEBV01@AEBV?$allocator@U?$pair@$$CBV?$basic_string@DU?$char_traits@D@std@@V?$allocator@D@2@@std@@H@std@@@1@@Z 0000000180012040     mex_opencv_2.4:MxArray.obj
 0002:00004058       $tryMap$??0?$_Tree@V?$_Tmap_traits@V?$basic_string@DU?$char_traits@D@std@@V?$allocator@D@2@@std@@HU?$less@V?$basic_string@DU?$char_traits@D@std@@V?$allocator@D@2@@std@@@2@V?$allocator@U?$pair@$$CBV?$basic_string@DU?$char_traits@D@std@@V?$allocator@D@2@@std@@H@std@@@2@$0A@@std@@@std@@QEAA@AEBV01@AEBV?$allocator@U?$pair@$$CBV?$basic_string@DU?$char_traits@D@std@@V?$allocator@D@2@@std@@H@std@@@1@@Z 0000000180012058     mex_opencv_2.4:MxArray.obj
 0002:0000406c       $handlerMap$0$??0?$_Tree@V?$_Tmap_traits@V?$basic_string@DU?$char_traits@D@std@@V?$allocator@D@2@@std@@HU?$less@V?$basic_string@DU?$char_traits@D@std@@V?$allocator@D@2@@std@@@2@V?$allocator@U?$pair@$$CBV?$basic_string@DU?$char_traits@D@std@@V?$allocator@D@2@@std@@H@std@@@2@$0A@@std@@@std@@QEAA@AEBV01@AEBV?$allocator@U?$pair@$$CBV?$basic_string@DU?$char_traits@D@std@@V?$allocator@D@2@@std@@H@std@@@1@@Z 000000018001206c     mex_opencv_2.4:MxArray.obj
 0002:00004080       $ip2state$??0?$_Tree@V?$_Tmap_traits@V?$basic_string@DU?$char_traits@D@std@@V?$allocator@D@2@@std@@HU?$less@V?$basic_string@DU?$char_traits@D@std@@V?$allocator@D@2@@std@@@2@V?$allocator@U?$pair@$$CBV?$basic_string@DU?$char_traits@D@std@@V?$allocator@D@2@@std@@H@std@@@2@$0A@@std@@@std@@QEAA@AEBV01@AEBV?$allocator@U?$pair@$$CBV?$basic_string@DU?$char_traits@D@std@@V?$allocator@D@2@@std@@H@std@@@1@@Z 0000000180012080     mex_opencv_2.4:MxArray.obj
 0002:000040a8       $unwind$?catch$0@?0???0?$_Tree@V?$_Tmap_traits@V?$basic_string@DU?$char_traits@D@std@@V?$allocator@D@2@@std@@HU?$less@V?$basic_string@DU?$char_traits@D@std@@V?$allocator@D@2@@std@@@2@V?$allocator@U?$pair@$$CBV?$basic_string@DU?$char_traits@D@std@@V?$allocator@D@2@@std@@H@std@@@2@$0A@@std@@@std@@QEAA@AEBV01@AEBV?$allocator@U?$pair@$$CBV?$basic_string@DU?$char_traits@D@std@@V?$allocator@D@2@@std@@H@std@@@1@@Z@4HA 00000001800120a8     mex_opencv_2.4:MxArray.obj
 0002:000040b8       $unwind$??0?$_Tree@V?$_Tmap_traits@W4mxClassID@@HU?$less@W4mxClassID@@@std@@V?$allocator@U?$pair@$$CBW4mxClassID@@H@std@@@3@$0A@@std@@@std@@QEAA@AEBV01@AEBV?$allocator@U?$pair@$$CBW4mxClassID@@H@std@@@1@@Z 00000001800120b8     mex_opencv_2.4:MxArray.obj
 0002:000040c8       $stateUnwindMap$??0?$_Tree@V?$_Tmap_traits@W4mxClassID@@HU?$less@W4mxClassID@@@std@@V?$allocator@U?$pair@$$CBW4mxClassID@@H@std@@@3@$0A@@std@@@std@@QEAA@AEBV01@AEBV?$allocator@U?$pair@$$CBW4mxClassID@@H@std@@@1@@Z 00000001800120c8     mex_opencv_2.4:MxArray.obj
 0002:000040e0       $tryMap$??0?$_Tree@V?$_Tmap_traits@W4mxClassID@@HU?$less@W4mxClassID@@@std@@V?$allocator@U?$pair@$$CBW4mxClassID@@H@std@@@3@$0A@@std@@@std@@QEAA@AEBV01@AEBV?$allocator@U?$pair@$$CBW4mxClassID@@H@std@@@1@@Z 00000001800120e0     mex_opencv_2.4:MxArray.obj
 0002:000040f4       $handlerMap$0$??0?$_Tree@V?$_Tmap_traits@W4mxClassID@@HU?$less@W4mxClassID@@@std@@V?$allocator@U?$pair@$$CBW4mxClassID@@H@std@@@3@$0A@@std@@@std@@QEAA@AEBV01@AEBV?$allocator@U?$pair@$$CBW4mxClassID@@H@std@@@1@@Z 00000001800120f4     mex_opencv_2.4:MxArray.obj
 0002:00004108       $ip2state$??0?$_Tree@V?$_Tmap_traits@W4mxClassID@@HU?$less@W4mxClassID@@@std@@V?$allocator@U?$pair@$$CBW4mxClassID@@H@std@@@3@$0A@@std@@@std@@QEAA@AEBV01@AEBV?$allocator@U?$pair@$$CBW4mxClassID@@H@std@@@1@@Z 0000000180012108     mex_opencv_2.4:MxArray.obj
 0002:00004130       $unwind$?catch$0@?0???0?$_Tree@V?$_Tmap_traits@W4mxClassID@@HU?$less@W4mxClassID@@@std@@V?$allocator@U?$pair@$$CBW4mxClassID@@H@std@@@3@$0A@@std@@@std@@QEAA@AEBV01@AEBV?$allocator@U?$pair@$$CBW4mxClassID@@H@std@@@1@@Z@4HA 0000000180012130     mex_opencv_2.4:MxArray.obj
 0002:00004140       $unwind$??0?$_Tree@V?$_Tmap_traits@HW4mxClassID@@U?$less@H@std@@V?$allocator@U?$pair@$$CBHW4mxClassID@@@std@@@3@$0A@@std@@@std@@QEAA@AEBV01@AEBV?$allocator@U?$pair@$$CBHW4mxClassID@@@std@@@1@@Z 0000000180012140     mex_opencv_2.4:MxArray.obj
 0002:00004150       $stateUnwindMap$??0?$_Tree@V?$_Tmap_traits@HW4mxClassID@@U?$less@H@std@@V?$allocator@U?$pair@$$CBHW4mxClassID@@@std@@@3@$0A@@std@@@std@@QEAA@AEBV01@AEBV?$allocator@U?$pair@$$CBHW4mxClassID@@@std@@@1@@Z 0000000180012150     mex_opencv_2.4:MxArray.obj
 0002:00004168       $tryMap$??0?$_Tree@V?$_Tmap_traits@HW4mxClassID@@U?$less@H@std@@V?$allocator@U?$pair@$$CBHW4mxClassID@@@std@@@3@$0A@@std@@@std@@QEAA@AEBV01@AEBV?$allocator@U?$pair@$$CBHW4mxClassID@@@std@@@1@@Z 0000000180012168     mex_opencv_2.4:MxArray.obj
 0002:0000417c       $handlerMap$0$??0?$_Tree@V?$_Tmap_traits@HW4mxClassID@@U?$less@H@std@@V?$allocator@U?$pair@$$CBHW4mxClassID@@@std@@@3@$0A@@std@@@std@@QEAA@AEBV01@AEBV?$allocator@U?$pair@$$CBHW4mxClassID@@@std@@@1@@Z 000000018001217c     mex_opencv_2.4:MxArray.obj
 0002:00004190       $ip2state$??0?$_Tree@V?$_Tmap_traits@HW4mxClassID@@U?$less@H@std@@V?$allocator@U?$pair@$$CBHW4mxClassID@@@std@@@3@$0A@@std@@@std@@QEAA@AEBV01@AEBV?$allocator@U?$pair@$$CBHW4mxClassID@@@std@@@1@@Z 0000000180012190     mex_opencv_2.4:MxArray.obj
 0002:000041b8       $unwind$?catch$0@?0???0?$_Tree@V?$_Tmap_traits@HW4mxClassID@@U?$less@H@std@@V?$allocator@U?$pair@$$CBHW4mxClassID@@@std@@@3@$0A@@std@@@std@@QEAA@AEBV01@AEBV?$allocator@U?$pair@$$CBHW4mxClassID@@@std@@@1@@Z@4HA 00000001800121b8     mex_opencv_2.4:MxArray.obj
 0002:000041c8       $unwind$??0?$_Tree@V?$_Tmap_traits@HV?$basic_string@DU?$char_traits@D@std@@V?$allocator@D@2@@std@@U?$less@H@2@V?$allocator@U?$pair@$$CBHV?$basic_string@DU?$char_traits@D@std@@V?$allocator@D@2@@std@@@std@@@2@$0A@@std@@@std@@QEAA@AEBV01@AEBV?$allocator@U?$pair@$$CBHV?$basic_string@DU?$char_traits@D@std@@V?$allocator@D@2@@std@@@std@@@1@@Z 00000001800121c8     mex_opencv_2.4:MxArray.obj
 0002:000041d8       $stateUnwindMap$??0?$_Tree@V?$_Tmap_traits@HV?$basic_string@DU?$char_traits@D@std@@V?$allocator@D@2@@std@@U?$less@H@2@V?$allocator@U?$pair@$$CBHV?$basic_string@DU?$char_traits@D@std@@V?$allocator@D@2@@std@@@std@@@2@$0A@@std@@@std@@QEAA@AEBV01@AEBV?$allocator@U?$pair@$$CBHV?$basic_string@DU?$char_traits@D@std@@V?$allocator@D@2@@std@@@std@@@1@@Z 00000001800121d8     mex_opencv_2.4:MxArray.obj
 0002:000041f0       $tryMap$??0?$_Tree@V?$_Tmap_traits@HV?$basic_string@DU?$char_traits@D@std@@V?$allocator@D@2@@std@@U?$less@H@2@V?$allocator@U?$pair@$$CBHV?$basic_string@DU?$char_traits@D@std@@V?$allocator@D@2@@std@@@std@@@2@$0A@@std@@@std@@QEAA@AEBV01@AEBV?$allocator@U?$pair@$$CBHV?$basic_string@DU?$char_traits@D@std@@V?$allocator@D@2@@std@@@std@@@1@@Z 00000001800121f0     mex_opencv_2.4:MxArray.obj
 0002:00004204       $handlerMap$0$??0?$_Tree@V?$_Tmap_traits@HV?$basic_string@DU?$char_traits@D@std@@V?$allocator@D@2@@std@@U?$less@H@2@V?$allocator@U?$pair@$$CBHV?$basic_string@DU?$char_traits@D@std@@V?$allocator@D@2@@std@@@std@@@2@$0A@@std@@@std@@QEAA@AEBV01@AEBV?$allocator@U?$pair@$$CBHV?$basic_string@DU?$char_traits@D@std@@V?$allocator@D@2@@std@@@std@@@1@@Z 0000000180012204     mex_opencv_2.4:MxArray.obj
 0002:00004218       $ip2state$??0?$_Tree@V?$_Tmap_traits@HV?$basic_string@DU?$char_traits@D@std@@V?$allocator@D@2@@std@@U?$less@H@2@V?$allocator@U?$pair@$$CBHV?$basic_string@DU?$char_traits@D@std@@V?$allocator@D@2@@std@@@std@@@2@$0A@@std@@@std@@QEAA@AEBV01@AEBV?$allocator@U?$pair@$$CBHV?$basic_string@DU?$char_traits@D@std@@V?$allocator@D@2@@std@@@std@@@1@@Z 0000000180012218     mex_opencv_2.4:MxArray.obj
 0002:00004240       $unwind$?catch$0@?0???0?$_Tree@V?$_Tmap_traits@HV?$basic_string@DU?$char_traits@D@std@@V?$allocator@D@2@@std@@U?$less@H@2@V?$allocator@U?$pair@$$CBHV?$basic_string@DU?$char_traits@D@std@@V?$allocator@D@2@@std@@@std@@@2@$0A@@std@@@std@@QEAA@AEBV01@AEBV?$allocator@U?$pair@$$CBHV?$basic_string@DU?$char_traits@D@std@@V?$allocator@D@2@@std@@@std@@@1@@Z@4HA 0000000180012240     mex_opencv_2.4:MxArray.obj
 0002:00004250       $unwind$?erase@?$_Tree@V?$_Tmap_traits@V?$basic_string@DU?$char_traits@D@std@@V?$allocator@D@2@@std@@HU?$less@V?$basic_string@DU?$char_traits@D@std@@V?$allocator@D@2@@std@@@2@V?$allocator@U?$pair@$$CBV?$basic_string@DU?$char_traits@D@std@@V?$allocator@D@2@@std@@H@std@@@2@$0A@@std@@@std@@QEAA?AV?$_Tree_iterator@V?$_Tree_val@U?$_Tree_simple_types@U?$pair@$$CBV?$basic_string@DU?$char_traits@D@std@@V?$allocator@D@2@@std@@H@std@@@std@@@std@@@2@V?$_Tree_const_iterator@V?$_Tree_val@U?$_Tree_simple_types@U?$pair@$$CBV?$basic_string@DU?$char_traits@D@std@@V?$allocator@D@2@@std@@H@std@@@std@@@std@@@2@0@Z 0000000180012250     mex_opencv_2.4:MxArray.obj
 0002:00004250       $unwind$?erase@?$_Tree@V?$_Tmap_traits@HV?$basic_string@DU?$char_traits@D@std@@V?$allocator@D@2@@std@@U?$less@H@2@V?$allocator@U?$pair@$$CBHV?$basic_string@DU?$char_traits@D@std@@V?$allocator@D@2@@std@@@std@@@2@$0A@@std@@@std@@QEAA?AV?$_Tree_iterator@V?$_Tree_val@U?$_Tree_simple_types@U?$pair@$$CBHV?$basic_string@DU?$char_traits@D@std@@V?$allocator@D@2@@std@@@std@@@std@@@std@@@2@V?$_Tree_const_iterator@V?$_Tree_val@U?$_Tree_simple_types@U?$pair@$$CBHV?$basic_string@DU?$char_traits@D@std@@V?$allocator@D@2@@std@@@std@@@std@@@std@@@2@0@Z 0000000180012250     mex_opencv_2.4:MxArray.obj
 0002:0000425c       $unwind$?erase@?$_Tree@V?$_Tmap_traits@HW4mxClassID@@U?$less@H@std@@V?$allocator@U?$pair@$$CBHW4mxClassID@@@std@@@3@$0A@@std@@@std@@QEAA?AV?$_Tree_iterator@V?$_Tree_val@U?$_Tree_simple_types@U?$pair@$$CBHW4mxClassID@@@std@@@std@@@std@@@2@V?$_Tree_const_iterator@V?$_Tree_val@U?$_Tree_simple_types@U?$pair@$$CBHW4mxClassID@@@std@@@std@@@std@@@2@0@Z 000000018001225c     mex_opencv_2.4:MxArray.obj
 0002:0000425c       $unwind$?erase@?$_Tree@V?$_Tmap_traits@W4mxClassID@@HU?$less@W4mxClassID@@@std@@V?$allocator@U?$pair@$$CBW4mxClassID@@H@std@@@3@$0A@@std@@@std@@QEAA?AV?$_Tree_iterator@V?$_Tree_val@U?$_Tree_simple_types@U?$pair@$$CBW4mxClassID@@H@std@@@std@@@std@@@2@V?$_Tree_const_iterator@V?$_Tree_val@U?$_Tree_simple_types@U?$pair@$$CBW4mxClassID@@H@std@@@std@@@std@@@2@0@Z 000000018001225c     mex_opencv_2.4:MxArray.obj
 0002:00004268       $chain$0$?erase@?$_Tree@V?$_Tmap_traits@HW4mxClassID@@U?$less@H@std@@V?$allocator@U?$pair@$$CBHW4mxClassID@@@std@@@3@$0A@@std@@@std@@QEAA?AV?$_Tree_iterator@V?$_Tree_val@U?$_Tree_simple_types@U?$pair@$$CBHW4mxClassID@@@std@@@std@@@std@@@2@V?$_Tree_const_iterator@V?$_Tree_val@U?$_Tree_simple_types@U?$pair@$$CBHW4mxClassID@@@std@@@std@@@std@@@2@0@Z 0000000180012268     mex_opencv_2.4:MxArray.obj
 0002:00004268       $chain$0$?erase@?$_Tree@V?$_Tmap_traits@W4mxClassID@@HU?$less@W4mxClassID@@@std@@V?$allocator@U?$pair@$$CBW4mxClassID@@H@std@@@3@$0A@@std@@@std@@QEAA?AV?$_Tree_iterator@V?$_Tree_val@U?$_Tree_simple_types@U?$pair@$$CBW4mxClassID@@H@std@@@std@@@std@@@2@V?$_Tree_const_iterator@V?$_Tree_val@U?$_Tree_simple_types@U?$pair@$$CBW4mxClassID@@H@std@@@std@@@std@@@2@0@Z 0000000180012268     mex_opencv_2.4:MxArray.obj
 0002:0000427c       $chain$1$?erase@?$_Tree@V?$_Tmap_traits@W4mxClassID@@HU?$less@W4mxClassID@@@std@@V?$allocator@U?$pair@$$CBW4mxClassID@@H@std@@@3@$0A@@std@@@std@@QEAA?AV?$_Tree_iterator@V?$_Tree_val@U?$_Tree_simple_types@U?$pair@$$CBW4mxClassID@@H@std@@@std@@@std@@@2@V?$_Tree_const_iterator@V?$_Tree_val@U?$_Tree_simple_types@U?$pair@$$CBW4mxClassID@@H@std@@@std@@@std@@@2@0@Z 000000018001227c     mex_opencv_2.4:MxArray.obj
 0002:0000427c       $chain$1$?erase@?$_Tree@V?$_Tmap_traits@HW4mxClassID@@U?$less@H@std@@V?$allocator@U?$pair@$$CBHW4mxClassID@@@std@@@3@$0A@@std@@@std@@QEAA?AV?$_Tree_iterator@V?$_Tree_val@U?$_Tree_simple_types@U?$pair@$$CBHW4mxClassID@@@std@@@std@@@std@@@2@V?$_Tree_const_iterator@V?$_Tree_val@U?$_Tree_simple_types@U?$pair@$$CBHW4mxClassID@@@std@@@std@@@std@@@2@0@Z 000000018001227c     mex_opencv_2.4:MxArray.obj
 0002:0000428c       $unwind$?erase@?$_Tree@V?$_Tmap_traits@V?$basic_string@DU?$char_traits@D@std@@V?$allocator@D@2@@std@@HU?$less@V?$basic_string@DU?$char_traits@D@std@@V?$allocator@D@2@@std@@@2@V?$allocator@U?$pair@$$CBV?$basic_string@DU?$char_traits@D@std@@V?$allocator@D@2@@std@@H@std@@@2@$0A@@std@@@std@@QEAA?AV?$_Tree_iterator@V?$_Tree_val@U?$_Tree_simple_types@U?$pair@$$CBV?$basic_string@DU?$char_traits@D@std@@V?$allocator@D@2@@std@@H@std@@@std@@@std@@@2@V?$_Tree_const_iterator@V?$_Tree_val@U?$_Tree_simple_types@U?$pair@$$CBV?$basic_string@DU?$char_traits@D@std@@V?$allocator@D@2@@std@@H@std@@@std@@@std@@@2@@Z 000000018001228c     mex_opencv_2.4:MxArray.obj
 0002:0000428c       $unwind$?erase@?$_Tree@V?$_Tmap_traits@HV?$basic_string@DU?$char_traits@D@std@@V?$allocator@D@2@@std@@U?$less@H@2@V?$allocator@U?$pair@$$CBHV?$basic_string@DU?$char_traits@D@std@@V?$allocator@D@2@@std@@@std@@@2@$0A@@std@@@std@@QEAA?AV?$_Tree_iterator@V?$_Tree_val@U?$_Tree_simple_types@U?$pair@$$CBHV?$basic_string@DU?$char_traits@D@std@@V?$allocator@D@2@@std@@@std@@@std@@@std@@@2@V?$_Tree_const_iterator@V?$_Tree_val@U?$_Tree_simple_types@U?$pair@$$CBHV?$basic_string@DU?$char_traits@D@std@@V?$allocator@D@2@@std@@@std@@@std@@@std@@@2@@Z 000000018001228c     mex_opencv_2.4:MxArray.obj
 0002:00004298       $chain$0$?erase@?$_Tree@V?$_Tmap_traits@V?$basic_string@DU?$char_traits@D@std@@V?$allocator@D@2@@std@@HU?$less@V?$basic_string@DU?$char_traits@D@std@@V?$allocator@D@2@@std@@@2@V?$allocator@U?$pair@$$CBV?$basic_string@DU?$char_traits@D@std@@V?$allocator@D@2@@std@@H@std@@@2@$0A@@std@@@std@@QEAA?AV?$_Tree_iterator@V?$_Tree_val@U?$_Tree_simple_types@U?$pair@$$CBV?$basic_string@DU?$char_traits@D@std@@V?$allocator@D@2@@std@@H@std@@@std@@@std@@@2@V?$_Tree_const_iterator@V?$_Tree_val@U?$_Tree_simple_types@U?$pair@$$CBV?$basic_string@DU?$char_traits@D@std@@V?$allocator@D@2@@std@@H@std@@@std@@@std@@@2@@Z 0000000180012298     mex_opencv_2.4:MxArray.obj
 0002:000042ac       $chain$2$?erase@?$_Tree@V?$_Tmap_traits@V?$basic_string@DU?$char_traits@D@std@@V?$allocator@D@2@@std@@HU?$less@V?$basic_string@DU?$char_traits@D@std@@V?$allocator@D@2@@std@@@2@V?$allocator@U?$pair@$$CBV?$basic_string@DU?$char_traits@D@std@@V?$allocator@D@2@@std@@H@std@@@2@$0A@@std@@@std@@QEAA?AV?$_Tree_iterator@V?$_Tree_val@U?$_Tree_simple_types@U?$pair@$$CBV?$basic_string@DU?$char_traits@D@std@@V?$allocator@D@2@@std@@H@std@@@std@@@std@@@2@V?$_Tree_const_iterator@V?$_Tree_val@U?$_Tree_simple_types@U?$pair@$$CBV?$basic_string@DU?$char_traits@D@std@@V?$allocator@D@2@@std@@H@std@@@std@@@std@@@2@@Z 00000001800122ac     mex_opencv_2.4:MxArray.obj
 0002:000042c4       $chain$3$?erase@?$_Tree@V?$_Tmap_traits@V?$basic_string@DU?$char_traits@D@std@@V?$allocator@D@2@@std@@HU?$less@V?$basic_string@DU?$char_traits@D@std@@V?$allocator@D@2@@std@@@2@V?$allocator@U?$pair@$$CBV?$basic_string@DU?$char_traits@D@std@@V?$allocator@D@2@@std@@H@std@@@2@$0A@@std@@@std@@QEAA?AV?$_Tree_iterator@V?$_Tree_val@U?$_Tree_simple_types@U?$pair@$$CBV?$basic_string@DU?$char_traits@D@std@@V?$allocator@D@2@@std@@H@std@@@std@@@std@@@2@V?$_Tree_const_iterator@V?$_Tree_val@U?$_Tree_simple_types@U?$pair@$$CBV?$basic_string@DU?$char_traits@D@std@@V?$allocator@D@2@@std@@H@std@@@std@@@std@@@2@@Z 00000001800122c4     mex_opencv_2.4:MxArray.obj
 0002:000042d4       $chain$4$?erase@?$_Tree@V?$_Tmap_traits@V?$basic_string@DU?$char_traits@D@std@@V?$allocator@D@2@@std@@HU?$less@V?$basic_string@DU?$char_traits@D@std@@V?$allocator@D@2@@std@@@2@V?$allocator@U?$pair@$$CBV?$basic_string@DU?$char_traits@D@std@@V?$allocator@D@2@@std@@H@std@@@2@$0A@@std@@@std@@QEAA?AV?$_Tree_iterator@V?$_Tree_val@U?$_Tree_simple_types@U?$pair@$$CBV?$basic_string@DU?$char_traits@D@std@@V?$allocator@D@2@@std@@H@std@@@std@@@std@@@2@V?$_Tree_const_iterator@V?$_Tree_val@U?$_Tree_simple_types@U?$pair@$$CBV?$basic_string@DU?$char_traits@D@std@@V?$allocator@D@2@@std@@H@std@@@std@@@std@@@2@@Z 00000001800122d4     mex_opencv_2.4:MxArray.obj
 0002:000042e4       $unwind$?erase@?$_Tree@V?$_Tmap_traits@HW4mxClassID@@U?$less@H@std@@V?$allocator@U?$pair@$$CBHW4mxClassID@@@std@@@3@$0A@@std@@@std@@QEAA?AV?$_Tree_iterator@V?$_Tree_val@U?$_Tree_simple_types@U?$pair@$$CBHW4mxClassID@@@std@@@std@@@std@@@2@V?$_Tree_const_iterator@V?$_Tree_val@U?$_Tree_simple_types@U?$pair@$$CBHW4mxClassID@@@std@@@std@@@std@@@2@@Z 00000001800122e4     mex_opencv_2.4:MxArray.obj
 0002:000042e4       $unwind$?erase@?$_Tree@V?$_Tmap_traits@W4mxClassID@@HU?$less@W4mxClassID@@@std@@V?$allocator@U?$pair@$$CBW4mxClassID@@H@std@@@3@$0A@@std@@@std@@QEAA?AV?$_Tree_iterator@V?$_Tree_val@U?$_Tree_simple_types@U?$pair@$$CBW4mxClassID@@H@std@@@std@@@std@@@2@V?$_Tree_const_iterator@V?$_Tree_val@U?$_Tree_simple_types@U?$pair@$$CBW4mxClassID@@H@std@@@std@@@std@@@2@@Z 00000001800122e4     mex_opencv_2.4:MxArray.obj
 0002:000042f0       $chain$2$?erase@?$_Tree@V?$_Tmap_traits@HW4mxClassID@@U?$less@H@std@@V?$allocator@U?$pair@$$CBHW4mxClassID@@@std@@@3@$0A@@std@@@std@@QEAA?AV?$_Tree_iterator@V?$_Tree_val@U?$_Tree_simple_types@U?$pair@$$CBHW4mxClassID@@@std@@@std@@@std@@@2@V?$_Tree_const_iterator@V?$_Tree_val@U?$_Tree_simple_types@U?$pair@$$CBHW4mxClassID@@@std@@@std@@@std@@@2@@Z 00000001800122f0     mex_opencv_2.4:MxArray.obj
 0002:000042f0       $chain$2$?erase@?$_Tree@V?$_Tmap_traits@W4mxClassID@@HU?$less@W4mxClassID@@@std@@V?$allocator@U?$pair@$$CBW4mxClassID@@H@std@@@3@$0A@@std@@@std@@QEAA?AV?$_Tree_iterator@V?$_Tree_val@U?$_Tree_simple_types@U?$pair@$$CBW4mxClassID@@H@std@@@std@@@std@@@2@V?$_Tree_const_iterator@V?$_Tree_val@U?$_Tree_simple_types@U?$pair@$$CBW4mxClassID@@H@std@@@std@@@std@@@2@@Z 00000001800122f0     mex_opencv_2.4:MxArray.obj
 0002:0000430c       $chain$3$?erase@?$_Tree@V?$_Tmap_traits@HW4mxClassID@@U?$less@H@std@@V?$allocator@U?$pair@$$CBHW4mxClassID@@@std@@@3@$0A@@std@@@std@@QEAA?AV?$_Tree_iterator@V?$_Tree_val@U?$_Tree_simple_types@U?$pair@$$CBHW4mxClassID@@@std@@@std@@@std@@@2@V?$_Tree_const_iterator@V?$_Tree_val@U?$_Tree_simple_types@U?$pair@$$CBHW4mxClassID@@@std@@@std@@@std@@@2@@Z 000000018001230c     mex_opencv_2.4:MxArray.obj
 0002:0000430c       $chain$3$?erase@?$_Tree@V?$_Tmap_traits@W4mxClassID@@HU?$less@W4mxClassID@@@std@@V?$allocator@U?$pair@$$CBW4mxClassID@@H@std@@@3@$0A@@std@@@std@@QEAA?AV?$_Tree_iterator@V?$_Tree_val@U?$_Tree_simple_types@U?$pair@$$CBW4mxClassID@@H@std@@@std@@@std@@@2@V?$_Tree_const_iterator@V?$_Tree_val@U?$_Tree_simple_types@U?$pair@$$CBW4mxClassID@@H@std@@@std@@@std@@@2@@Z 000000018001230c     mex_opencv_2.4:MxArray.obj
 0002:0000431c       $chain$0$?erase@?$_Tree@V?$_Tmap_traits@HV?$basic_string@DU?$char_traits@D@std@@V?$allocator@D@2@@std@@U?$less@H@2@V?$allocator@U?$pair@$$CBHV?$basic_string@DU?$char_traits@D@std@@V?$allocator@D@2@@std@@@std@@@2@$0A@@std@@@std@@QEAA?AV?$_Tree_iterator@V?$_Tree_val@U?$_Tree_simple_types@U?$pair@$$CBHV?$basic_string@DU?$char_traits@D@std@@V?$allocator@D@2@@std@@@std@@@std@@@std@@@2@V?$_Tree_const_iterator@V?$_Tree_val@U?$_Tree_simple_types@U?$pair@$$CBHV?$basic_string@DU?$char_traits@D@std@@V?$allocator@D@2@@std@@@std@@@std@@@std@@@2@@Z 000000018001231c     mex_opencv_2.4:MxArray.obj
 0002:00004330       $chain$2$?erase@?$_Tree@V?$_Tmap_traits@HV?$basic_string@DU?$char_traits@D@std@@V?$allocator@D@2@@std@@U?$less@H@2@V?$allocator@U?$pair@$$CBHV?$basic_string@DU?$char_traits@D@std@@V?$allocator@D@2@@std@@@std@@@2@$0A@@std@@@std@@QEAA?AV?$_Tree_iterator@V?$_Tree_val@U?$_Tree_simple_types@U?$pair@$$CBHV?$basic_string@DU?$char_traits@D@std@@V?$allocator@D@2@@std@@@std@@@std@@@std@@@2@V?$_Tree_const_iterator@V?$_Tree_val@U?$_Tree_simple_types@U?$pair@$$CBHV?$basic_string@DU?$char_traits@D@std@@V?$allocator@D@2@@std@@@std@@@std@@@std@@@2@@Z 0000000180012330     mex_opencv_2.4:MxArray.obj
 0002:00004348       $chain$3$?erase@?$_Tree@V?$_Tmap_traits@HV?$basic_string@DU?$char_traits@D@std@@V?$allocator@D@2@@std@@U?$less@H@2@V?$allocator@U?$pair@$$CBHV?$basic_string@DU?$char_traits@D@std@@V?$allocator@D@2@@std@@@std@@@2@$0A@@std@@@std@@QEAA?AV?$_Tree_iterator@V?$_Tree_val@U?$_Tree_simple_types@U?$pair@$$CBHV?$basic_string@DU?$char_traits@D@std@@V?$allocator@D@2@@std@@@std@@@std@@@std@@@2@V?$_Tree_const_iterator@V?$_Tree_val@U?$_Tree_simple_types@U?$pair@$$CBHV?$basic_string@DU?$char_traits@D@std@@V?$allocator@D@2@@std@@@std@@@std@@@std@@@2@@Z 0000000180012348     mex_opencv_2.4:MxArray.obj
 0002:00004358       $chain$4$?erase@?$_Tree@V?$_Tmap_traits@HV?$basic_string@DU?$char_traits@D@std@@V?$allocator@D@2@@std@@U?$less@H@2@V?$allocator@U?$pair@$$CBHV?$basic_string@DU?$char_traits@D@std@@V?$allocator@D@2@@std@@@std@@@2@$0A@@std@@@std@@QEAA?AV?$_Tree_iterator@V?$_Tree_val@U?$_Tree_simple_types@U?$pair@$$CBHV?$basic_string@DU?$char_traits@D@std@@V?$allocator@D@2@@std@@@std@@@std@@@std@@@2@V?$_Tree_const_iterator@V?$_Tree_val@U?$_Tree_simple_types@U?$pair@$$CBHV?$basic_string@DU?$char_traits@D@std@@V?$allocator@D@2@@std@@@std@@@std@@@std@@@2@@Z 0000000180012358     mex_opencv_2.4:MxArray.obj
 0002:00004368       $chain$0$?_Erase@?$_Tree@V?$_Tmap_traits@V?$basic_string@DU?$char_traits@D@std@@V?$allocator@D@2@@std@@HU?$less@V?$basic_string@DU?$char_traits@D@std@@V?$allocator@D@2@@std@@@2@V?$allocator@U?$pair@$$CBV?$basic_string@DU?$char_traits@D@std@@V?$allocator@D@2@@std@@H@std@@@2@$0A@@std@@@std@@IEAAXPEAU?$_Tree_node@U?$pair@$$CBV?$basic_string@DU?$char_traits@D@std@@V?$allocator@D@2@@std@@H@std@@PEAX@2@@Z 0000000180012368     mex_opencv_2.4:MxArray.obj
 0002:0000437c       $chain$1$?_Erase@?$_Tree@V?$_Tmap_traits@V?$basic_string@DU?$char_traits@D@std@@V?$allocator@D@2@@std@@HU?$less@V?$basic_string@DU?$char_traits@D@std@@V?$allocator@D@2@@std@@@2@V?$allocator@U?$pair@$$CBV?$basic_string@DU?$char_traits@D@std@@V?$allocator@D@2@@std@@H@std@@@2@$0A@@std@@@std@@IEAAXPEAU?$_Tree_node@U?$pair@$$CBV?$basic_string@DU?$char_traits@D@std@@V?$allocator@D@2@@std@@H@std@@PEAX@2@@Z 000000018001237c     mex_opencv_2.4:MxArray.obj
 0002:0000438c       $chain$0$?_Erase@?$_Tree@V?$_Tmap_traits@HV?$basic_string@DU?$char_traits@D@std@@V?$allocator@D@2@@std@@U?$less@H@2@V?$allocator@U?$pair@$$CBHV?$basic_string@DU?$char_traits@D@std@@V?$allocator@D@2@@std@@@std@@@2@$0A@@std@@@std@@IEAAXPEAU?$_Tree_node@U?$pair@$$CBHV?$basic_string@DU?$char_traits@D@std@@V?$allocator@D@2@@std@@@std@@PEAX@2@@Z 000000018001238c     mex_opencv_2.4:MxArray.obj
 0002:000043a0       $chain$1$?_Erase@?$_Tree@V?$_Tmap_traits@HV?$basic_string@DU?$char_traits@D@std@@V?$allocator@D@2@@std@@U?$less@H@2@V?$allocator@U?$pair@$$CBHV?$basic_string@DU?$char_traits@D@std@@V?$allocator@D@2@@std@@@std@@@2@$0A@@std@@@std@@IEAAXPEAU?$_Tree_node@U?$pair@$$CBHV?$basic_string@DU?$char_traits@D@std@@V?$allocator@D@2@@std@@@std@@PEAX@2@@Z 00000001800123a0     mex_opencv_2.4:MxArray.obj
 0002:000043b0       $unwind$??$_Buynode@AEBUpiecewise_construct_t@std@@V?$tuple@AEBV?$basic_string@DU?$char_traits@D@std@@V?$allocator@D@2@@std@@@2@V?$tuple@$$$V@2@@?$_Tree_buy@U?$pair@$$CBV?$basic_string@DU?$char_traits@D@std@@V?$allocator@D@2@@std@@H@std@@V?$allocator@U?$pair@$$CBV?$basic_string@DU?$char_traits@D@std@@V?$allocator@D@2@@std@@H@std@@@2@@std@@QEAAPEAU?$_Tree_node@U?$pair@$$CBV?$basic_string@DU?$char_traits@D@std@@V?$allocator@D@2@@std@@H@std@@PEAX@1@AEBUpiecewise_construct_t@1@$$QEAV?$tuple@AEBV?$basic_string@DU?$char_traits@D@std@@V?$allocator@D@2@@std@@@1@$$QEAV?$tuple@$$$V@1@@Z 00000001800123b0     mex_opencv_2.4:MxArray.obj
 0002:000043c8       $stateUnwindMap$??$_Buynode@AEBUpiecewise_construct_t@std@@V?$tuple@AEBV?$basic_string@DU?$char_traits@D@std@@V?$allocator@D@2@@std@@@2@V?$tuple@$$$V@2@@?$_Tree_buy@U?$pair@$$CBV?$basic_string@DU?$char_traits@D@std@@V?$allocator@D@2@@std@@H@std@@V?$allocator@U?$pair@$$CBV?$basic_string@DU?$char_traits@D@std@@V?$allocator@D@2@@std@@H@std@@@2@@std@@QEAAPEAU?$_Tree_node@U?$pair@$$CBV?$basic_string@DU?$char_traits@D@std@@V?$allocator@D@2@@std@@H@std@@PEAX@1@AEBUpiecewise_construct_t@1@$$QEAV?$tuple@AEBV?$basic_string@DU?$char_traits@D@std@@V?$allocator@D@2@@std@@@1@$$QEAV?$tuple@$$$V@1@@Z 00000001800123c8     mex_opencv_2.4:MxArray.obj
 0002:000043e0       $tryMap$??$_Buynode@AEBUpiecewise_construct_t@std@@V?$tuple@AEBV?$basic_string@DU?$char_traits@D@std@@V?$allocator@D@2@@std@@@2@V?$tuple@$$$V@2@@?$_Tree_buy@U?$pair@$$CBV?$basic_string@DU?$char_traits@D@std@@V?$allocator@D@2@@std@@H@std@@V?$allocator@U?$pair@$$CBV?$basic_string@DU?$char_traits@D@std@@V?$allocator@D@2@@std@@H@std@@@2@@std@@QEAAPEAU?$_Tree_node@U?$pair@$$CBV?$basic_string@DU?$char_traits@D@std@@V?$allocator@D@2@@std@@H@std@@PEAX@1@AEBUpiecewise_construct_t@1@$$QEAV?$tuple@AEBV?$basic_string@DU?$char_traits@D@std@@V?$allocator@D@2@@std@@@1@$$QEAV?$tuple@$$$V@1@@Z 00000001800123e0     mex_opencv_2.4:MxArray.obj
 0002:000043f4       $handlerMap$0$??$_Buynode@AEBUpiecewise_construct_t@std@@V?$tuple@AEBV?$basic_string@DU?$char_traits@D@std@@V?$allocator@D@2@@std@@@2@V?$tuple@$$$V@2@@?$_Tree_buy@U?$pair@$$CBV?$basic_string@DU?$char_traits@D@std@@V?$allocator@D@2@@std@@H@std@@V?$allocator@U?$pair@$$CBV?$basic_string@DU?$char_traits@D@std@@V?$allocator@D@2@@std@@H@std@@@2@@std@@QEAAPEAU?$_Tree_node@U?$pair@$$CBV?$basic_string@DU?$char_traits@D@std@@V?$allocator@D@2@@std@@H@std@@PEAX@1@AEBUpiecewise_construct_t@1@$$QEAV?$tuple@AEBV?$basic_string@DU?$char_traits@D@std@@V?$allocator@D@2@@std@@@1@$$QEAV?$tuple@$$$V@1@@Z 00000001800123f4     mex_opencv_2.4:MxArray.obj
 0002:00004408       $ip2state$??$_Buynode@AEBUpiecewise_construct_t@std@@V?$tuple@AEBV?$basic_string@DU?$char_traits@D@std@@V?$allocator@D@2@@std@@@2@V?$tuple@$$$V@2@@?$_Tree_buy@U?$pair@$$CBV?$basic_string@DU?$char_traits@D@std@@V?$allocator@D@2@@std@@H@std@@V?$allocator@U?$pair@$$CBV?$basic_string@DU?$char_traits@D@std@@V?$allocator@D@2@@std@@H@std@@@2@@std@@QEAAPEAU?$_Tree_node@U?$pair@$$CBV?$basic_string@DU?$char_traits@D@std@@V?$allocator@D@2@@std@@H@std@@PEAX@1@AEBUpiecewise_construct_t@1@$$QEAV?$tuple@AEBV?$basic_string@DU?$char_traits@D@std@@V?$allocator@D@2@@std@@@1@$$QEAV?$tuple@$$$V@1@@Z 0000000180012408     mex_opencv_2.4:MxArray.obj
 0002:00004438       $unwind$?catch$0@?0???$_Buynode@AEBUpiecewise_construct_t@std@@V?$tuple@AEBV?$basic_string@DU?$char_traits@D@std@@V?$allocator@D@2@@std@@@2@V?$tuple@$$$V@2@@?$_Tree_buy@U?$pair@$$CBV?$basic_string@DU?$char_traits@D@std@@V?$allocator@D@2@@std@@H@std@@V?$allocator@U?$pair@$$CBV?$basic_string@DU?$char_traits@D@std@@V?$allocator@D@2@@std@@H@std@@@2@@std@@QEAAPEAU?$_Tree_node@U?$pair@$$CBV?$basic_string@DU?$char_traits@D@std@@V?$allocator@D@2@@std@@H@std@@PEAX@1@AEBUpiecewise_construct_t@1@$$QEAV?$tuple@AEBV?$basic_string@DU?$char_traits@D@std@@V?$allocator@D@2@@std@@@1@$$QEAV?$tuple@$$$V@1@@Z@4HA 0000000180012438     mex_opencv_2.4:MxArray.obj
 0002:00004448       $unwind$??$_Insert_hint@AEAU?$pair@$$CBV?$basic_string@DU?$char_traits@D@std@@V?$allocator@D@2@@std@@H@std@@PEAU?$_Tree_node@U?$pair@$$CBV?$basic_string@DU?$char_traits@D@std@@V?$allocator@D@2@@std@@H@std@@PEAX@2@@?$_Tree@V?$_Tmap_traits@V?$basic_string@DU?$char_traits@D@std@@V?$allocator@D@2@@std@@HU?$less@V?$basic_string@DU?$char_traits@D@std@@V?$allocator@D@2@@std@@@2@V?$allocator@U?$pair@$$CBV?$basic_string@DU?$char_traits@D@std@@V?$allocator@D@2@@std@@H@std@@@2@$0A@@std@@@std@@IEAA?AV?$_Tree_iterator@V?$_Tree_val@U?$_Tree_simple_types@U?$pair@$$CBV?$basic_string@DU?$char_traits@D@std@@V?$allocator@D@2@@std@@H@std@@@std@@@std@@@1@V?$_Tree_const_iterator@V?$_Tree_val@U?$_Tree_simple_types@U?$pair@$$CBV?$basic_string@DU?$char_traits@D@std@@V?$allocator@D@2@@std@@H@std@@@std@@@std@@@1@AEAU?$pair@$$CBV?$basic_string@DU?$char_traits@D@std@@V?$allocator@D@2@@std@@H@1@PEAU?$_Tree_node@U?$pair@$$CBV?$basic_string@DU?$char_traits@D@std@@V?$allocator@D@2@@std@@H@std@@PEAX@1@@Z 0000000180012448     mex_opencv_2.4:MxArray.obj
 0002:00004460       $stateUnwindMap$??$_Copy_nodes@U?$integral_constant@_N$0A@@std@@@?$_Tree@V?$_Tmap_traits@W4mxClassID@@HU?$less@W4mxClassID@@@std@@V?$allocator@U?$pair@$$CBW4mxClassID@@H@std@@@3@$0A@@std@@@std@@IEAAPEAU?$_Tree_node@U?$pair@$$CBW4mxClassID@@H@std@@PEAX@1@PEAU21@0U?$integral_constant@_N$0A@@1@@Z 0000000180012460     mex_opencv_2.4:MxArray.obj
 0002:00004460       $stateUnwindMap$??$_Insert_nohint@AEAU?$pair@$$CBHV?$basic_string@DU?$char_traits@D@std@@V?$allocator@D@2@@std@@@std@@PEAU?$_Tree_node@U?$pair@$$CBHV?$basic_string@DU?$char_traits@D@std@@V?$allocator@D@2@@std@@@std@@PEAX@2@@?$_Tree@V?$_Tmap_traits@HV?$basic_string@DU?$char_traits@D@std@@V?$allocator@D@2@@std@@U?$less@H@2@V?$allocator@U?$pair@$$CBHV?$basic_string@DU?$char_traits@D@std@@V?$allocator@D@2@@std@@@std@@@2@$0A@@std@@@std@@IEAA?AU?$pair@V?$_Tree_iterator@V?$_Tree_val@U?$_Tree_simple_types@U?$pair@$$CBHV?$basic_string@DU?$char_traits@D@std@@V?$allocator@D@2@@std@@@std@@@std@@@std@@@std@@_N@1@_NAEAU?$pair@$$CBHV?$basic_string@DU?$char_traits@D@std@@V?$allocator@D@2@@std@@@1@PEAU?$_Tree_node@U?$pair@$$CBHV?$basic_string@DU?$char_traits@D@std@@V?$allocator@D@2@@std@@@std@@PEAX@1@@Z 0000000180012460     mex_opencv_2.4:MxArray.obj
 0002:00004460       $stateUnwindMap$??$_Insert_hint@AEAU?$pair@$$CBHW4mxClassID@@@std@@PEAU?$_Tree_node@U?$pair@$$CBHW4mxClassID@@@std@@PEAX@2@@?$_Tree@V?$_Tmap_traits@HW4mxClassID@@U?$less@H@std@@V?$allocator@U?$pair@$$CBHW4mxClassID@@@std@@@3@$0A@@std@@@std@@IEAA?AV?$_Tree_iterator@V?$_Tree_val@U?$_Tree_simple_types@U?$pair@$$CBHW4mxClassID@@@std@@@std@@@std@@@1@V?$_Tree_const_iterator@V?$_Tree_val@U?$_Tree_simple_types@U?$pair@$$CBHW4mxClassID@@@std@@@std@@@std@@@1@AEAU?$pair@$$CBHW4mxClassID@@@1@PEAU?$_Tree_node@U?$pair@$$CBHW4mxClassID@@@std@@PEAX@1@@Z 0000000180012460     mex_opencv_2.4:MxArray.obj
 0002:00004460       $stateUnwindMap$??$_Insert_hint@AEAU?$pair@$$CBV?$basic_string@DU?$char_traits@D@std@@V?$allocator@D@2@@std@@H@std@@PEAU?$_Tree_node@U?$pair@$$CBV?$basic_string@DU?$char_traits@D@std@@V?$allocator@D@2@@std@@H@std@@PEAX@2@@?$_Tree@V?$_Tmap_traits@V?$basic_string@DU?$char_traits@D@std@@V?$allocator@D@2@@std@@HU?$less@V?$basic_string@DU?$char_traits@D@std@@V?$allocator@D@2@@std@@@2@V?$allocator@U?$pair@$$CBV?$basic_string@DU?$char_traits@D@std@@V?$allocator@D@2@@std@@H@std@@@2@$0A@@std@@@std@@IEAA?AV?$_Tree_iterator@V?$_Tree_val@U?$_Tree_simple_types@U?$pair@$$CBV?$basic_string@DU?$char_traits@D@std@@V?$allocator@D@2@@std@@H@std@@@std@@@std@@@1@V?$_Tree_const_iterator@V?$_Tree_val@U?$_Tree_simple_types@U?$pair@$$CBV?$basic_string@DU?$char_traits@D@std@@V?$allocator@D@2@@std@@H@std@@@std@@@std@@@1@AEAU?$pair@$$CBV?$basic_string@DU?$char_traits@D@std@@V?$allocator@D@2@@std@@H@1@PEAU?$_Tree_node@U?$pair@$$CBV?$basic_string@DU?$char_traits@D@std@@V?$allocator@D@2@@std@@H@std@@PEAX@1@@Z 0000000180012460     mex_opencv_2.4:MxArray.obj
 0002:00004460       $stateUnwindMap$??$_Copy_nodes@U?$integral_constant@_N$0A@@std@@@?$_Tree@V?$_Tmap_traits@V?$basic_string@DU?$char_traits@D@std@@V?$allocator@D@2@@std@@HU?$less@V?$basic_string@DU?$char_traits@D@std@@V?$allocator@D@2@@std@@@2@V?$allocator@U?$pair@$$CBV?$basic_string@DU?$char_traits@D@std@@V?$allocator@D@2@@std@@H@std@@@2@$0A@@std@@@std@@IEAAPEAU?$_Tree_node@U?$pair@$$CBV?$basic_string@DU?$char_traits@D@std@@V?$allocator@D@2@@std@@H@std@@PEAX@1@PEAU21@0U?$integral_constant@_N$0A@@1@@Z 0000000180012460     mex_opencv_2.4:MxArray.obj
 0002:00004460       $stateUnwindMap$??$_Copy_nodes@U?$integral_constant@_N$0A@@std@@@?$_Tree@V?$_Tmap_traits@HV?$basic_string@DU?$char_traits@D@std@@V?$allocator@D@2@@std@@U?$less@H@2@V?$allocator@U?$pair@$$CBHV?$basic_string@DU?$char_traits@D@std@@V?$allocator@D@2@@std@@@std@@@2@$0A@@std@@@std@@IEAAPEAU?$_Tree_node@U?$pair@$$CBHV?$basic_string@DU?$char_traits@D@std@@V?$allocator@D@2@@std@@@std@@PEAX@1@PEAU21@0U?$integral_constant@_N$0A@@1@@Z 0000000180012460     mex_opencv_2.4:MxArray.obj
 0002:00004460       $stateUnwindMap$??$_Insert_nohint@AEAU?$pair@$$CBV?$basic_string@DU?$char_traits@D@std@@V?$allocator@D@2@@std@@H@std@@PEAU?$_Tree_node@U?$pair@$$CBV?$basic_string@DU?$char_traits@D@std@@V?$allocator@D@2@@std@@H@std@@PEAX@2@@?$_Tree@V?$_Tmap_traits@V?$basic_string@DU?$char_traits@D@std@@V?$allocator@D@2@@std@@HU?$less@V?$basic_string@DU?$char_traits@D@std@@V?$allocator@D@2@@std@@@2@V?$allocator@U?$pair@$$CBV?$basic_string@DU?$char_traits@D@std@@V?$allocator@D@2@@std@@H@std@@@2@$0A@@std@@@std@@IEAA?AU?$pair@V?$_Tree_iterator@V?$_Tree_val@U?$_Tree_simple_types@U?$pair@$$CBV?$basic_string@DU?$char_traits@D@std@@V?$allocator@D@2@@std@@H@std@@@std@@@std@@@std@@_N@1@_NAEAU?$pair@$$CBV?$basic_string@DU?$char_traits@D@std@@V?$allocator@D@2@@std@@H@1@PEAU?$_Tree_node@U?$pair@$$CBV?$basic_string@DU?$char_traits@D@std@@V?$allocator@D@2@@std@@H@std@@PEAX@1@@Z 0000000180012460     mex_opencv_2.4:MxArray.obj
 0002:00004460       $stateUnwindMap$??$_Insert_hint@AEAU?$pair@$$CBW4mxClassID@@H@std@@PEAU?$_Tree_node@U?$pair@$$CBW4mxClassID@@H@std@@PEAX@2@@?$_Tree@V?$_Tmap_traits@W4mxClassID@@HU?$less@W4mxClassID@@@std@@V?$allocator@U?$pair@$$CBW4mxClassID@@H@std@@@3@$0A@@std@@@std@@IEAA?AV?$_Tree_iterator@V?$_Tree_val@U?$_Tree_simple_types@U?$pair@$$CBW4mxClassID@@H@std@@@std@@@std@@@1@V?$_Tree_const_iterator@V?$_Tree_val@U?$_Tree_simple_types@U?$pair@$$CBW4mxClassID@@H@std@@@std@@@std@@@1@AEAU?$pair@$$CBW4mxClassID@@H@1@PEAU?$_Tree_node@U?$pair@$$CBW4mxClassID@@H@std@@PEAX@1@@Z 0000000180012460     mex_opencv_2.4:MxArray.obj
 0002:00004460       $stateUnwindMap$??$_Insert_nohint@AEAU?$pair@$$CBHW4mxClassID@@@std@@PEAU?$_Tree_node@U?$pair@$$CBHW4mxClassID@@@std@@PEAX@2@@?$_Tree@V?$_Tmap_traits@HW4mxClassID@@U?$less@H@std@@V?$allocator@U?$pair@$$CBHW4mxClassID@@@std@@@3@$0A@@std@@@std@@IEAA?AU?$pair@V?$_Tree_iterator@V?$_Tree_val@U?$_Tree_simple_types@U?$pair@$$CBHW4mxClassID@@@std@@@std@@@std@@@std@@_N@1@_NAEAU?$pair@$$CBHW4mxClassID@@@1@PEAU?$_Tree_node@U?$pair@$$CBHW4mxClassID@@@std@@PEAX@1@@Z 0000000180012460     mex_opencv_2.4:MxArray.obj
 0002:00004460       $stateUnwindMap$??$_Insert_nohint@AEAU?$pair@$$CBW4mxClassID@@H@std@@PEAU?$_Tree_node@U?$pair@$$CBW4mxClassID@@H@std@@PEAX@2@@?$_Tree@V?$_Tmap_traits@W4mxClassID@@HU?$less@W4mxClassID@@@std@@V?$allocator@U?$pair@$$CBW4mxClassID@@H@std@@@3@$0A@@std@@@std@@IEAA?AU?$pair@V?$_Tree_iterator@V?$_Tree_val@U?$_Tree_simple_types@U?$pair@$$CBW4mxClassID@@H@std@@@std@@@std@@@std@@_N@1@_NAEAU?$pair@$$CBW4mxClassID@@H@1@PEAU?$_Tree_node@U?$pair@$$CBW4mxClassID@@H@std@@PEAX@1@@Z 0000000180012460     mex_opencv_2.4:MxArray.obj
 0002:00004460       $stateUnwindMap$??$_Copy_nodes@U?$integral_constant@_N$0A@@std@@@?$_Tree@V?$_Tmap_traits@HW4mxClassID@@U?$less@H@std@@V?$allocator@U?$pair@$$CBHW4mxClassID@@@std@@@3@$0A@@std@@@std@@IEAAPEAU?$_Tree_node@U?$pair@$$CBHW4mxClassID@@@std@@PEAX@1@PEAU21@0U?$integral_constant@_N$0A@@1@@Z 0000000180012460     mex_opencv_2.4:MxArray.obj
 0002:00004460       $stateUnwindMap$??$_Insert_hint@AEAU?$pair@$$CBHV?$basic_string@DU?$char_traits@D@std@@V?$allocator@D@2@@std@@@std@@PEAU?$_Tree_node@U?$pair@$$CBHV?$basic_string@DU?$char_traits@D@std@@V?$allocator@D@2@@std@@@std@@PEAX@2@@?$_Tree@V?$_Tmap_traits@HV?$basic_string@DU?$char_traits@D@std@@V?$allocator@D@2@@std@@U?$less@H@2@V?$allocator@U?$pair@$$CBHV?$basic_string@DU?$char_traits@D@std@@V?$allocator@D@2@@std@@@std@@@2@$0A@@std@@@std@@IEAA?AV?$_Tree_iterator@V?$_Tree_val@U?$_Tree_simple_types@U?$pair@$$CBHV?$basic_string@DU?$char_traits@D@std@@V?$allocator@D@2@@std@@@std@@@std@@@std@@@1@V?$_Tree_const_iterator@V?$_Tree_val@U?$_Tree_simple_types@U?$pair@$$CBHV?$basic_string@DU?$char_traits@D@std@@V?$allocator@D@2@@std@@@std@@@std@@@std@@@1@AEAU?$pair@$$CBHV?$basic_string@DU?$char_traits@D@std@@V?$allocator@D@2@@std@@@1@PEAU?$_Tree_node@U?$pair@$$CBHV?$basic_string@DU?$char_traits@D@std@@V?$allocator@D@2@@std@@@std@@PEAX@1@@Z 0000000180012460     mex_opencv_2.4:MxArray.obj
 0002:00004470       $tryMap$??$_Insert_hint@AEAU?$pair@$$CBV?$basic_string@DU?$char_traits@D@std@@V?$allocator@D@2@@std@@H@std@@PEAU?$_Tree_node@U?$pair@$$CBV?$basic_string@DU?$char_traits@D@std@@V?$allocator@D@2@@std@@H@std@@PEAX@2@@?$_Tree@V?$_Tmap_traits@V?$basic_string@DU?$char_traits@D@std@@V?$allocator@D@2@@std@@HU?$less@V?$basic_string@DU?$char_traits@D@std@@V?$allocator@D@2@@std@@@2@V?$allocator@U?$pair@$$CBV?$basic_string@DU?$char_traits@D@std@@V?$allocator@D@2@@std@@H@std@@@2@$0A@@std@@@std@@IEAA?AV?$_Tree_iterator@V?$_Tree_val@U?$_Tree_simple_types@U?$pair@$$CBV?$basic_string@DU?$char_traits@D@std@@V?$allocator@D@2@@std@@H@std@@@std@@@std@@@1@V?$_Tree_const_iterator@V?$_Tree_val@U?$_Tree_simple_types@U?$pair@$$CBV?$basic_string@DU?$char_traits@D@std@@V?$allocator@D@2@@std@@H@std@@@std@@@std@@@1@AEAU?$pair@$$CBV?$basic_string@DU?$char_traits@D@std@@V?$allocator@D@2@@std@@H@1@PEAU?$_Tree_node@U?$pair@$$CBV?$basic_string@DU?$char_traits@D@std@@V?$allocator@D@2@@std@@H@std@@PEAX@1@@Z 0000000180012470     mex_opencv_2.4:MxArray.obj
 0002:00004484       $handlerMap$0$??$_Insert_hint@AEAU?$pair@$$CBV?$basic_string@DU?$char_traits@D@std@@V?$allocator@D@2@@std@@H@std@@PEAU?$_Tree_node@U?$pair@$$CBV?$basic_string@DU?$char_traits@D@std@@V?$allocator@D@2@@std@@H@std@@PEAX@2@@?$_Tree@V?$_Tmap_traits@V?$basic_string@DU?$char_traits@D@std@@V?$allocator@D@2@@std@@HU?$less@V?$basic_string@DU?$char_traits@D@std@@V?$allocator@D@2@@std@@@2@V?$allocator@U?$pair@$$CBV?$basic_string@DU?$char_traits@D@std@@V?$allocator@D@2@@std@@H@std@@@2@$0A@@std@@@std@@IEAA?AV?$_Tree_iterator@V?$_Tree_val@U?$_Tree_simple_types@U?$pair@$$CBV?$basic_string@DU?$char_traits@D@std@@V?$allocator@D@2@@std@@H@std@@@std@@@std@@@1@V?$_Tree_const_iterator@V?$_Tree_val@U?$_Tree_simple_types@U?$pair@$$CBV?$basic_string@DU?$char_traits@D@std@@V?$allocator@D@2@@std@@H@std@@@std@@@std@@@1@AEAU?$pair@$$CBV?$basic_string@DU?$char_traits@D@std@@V?$allocator@D@2@@std@@H@1@PEAU?$_Tree_node@U?$pair@$$CBV?$basic_string@DU?$char_traits@D@std@@V?$allocator@D@2@@std@@H@std@@PEAX@1@@Z 0000000180012484     mex_opencv_2.4:MxArray.obj
 0002:00004498       $ip2state$??$_Insert_hint@AEAU?$pair@$$CBV?$basic_string@DU?$char_traits@D@std@@V?$allocator@D@2@@std@@H@std@@PEAU?$_Tree_node@U?$pair@$$CBV?$basic_string@DU?$char_traits@D@std@@V?$allocator@D@2@@std@@H@std@@PEAX@2@@?$_Tree@V?$_Tmap_traits@V?$basic_string@DU?$char_traits@D@std@@V?$allocator@D@2@@std@@HU?$less@V?$basic_string@DU?$char_traits@D@std@@V?$allocator@D@2@@std@@@2@V?$allocator@U?$pair@$$CBV?$basic_string@DU?$char_traits@D@std@@V?$allocator@D@2@@std@@H@std@@@2@$0A@@std@@@std@@IEAA?AV?$_Tree_iterator@V?$_Tree_val@U?$_Tree_simple_types@U?$pair@$$CBV?$basic_string@DU?$char_traits@D@std@@V?$allocator@D@2@@std@@H@std@@@std@@@std@@@1@V?$_Tree_const_iterator@V?$_Tree_val@U?$_Tree_simple_types@U?$pair@$$CBV?$basic_string@DU?$char_traits@D@std@@V?$allocator@D@2@@std@@H@std@@@std@@@std@@@1@AEAU?$pair@$$CBV?$basic_string@DU?$char_traits@D@std@@V?$allocator@D@2@@std@@H@1@PEAU?$_Tree_node@U?$pair@$$CBV?$basic_string@DU?$char_traits@D@std@@V?$allocator@D@2@@std@@H@std@@PEAX@1@@Z 0000000180012498     mex_opencv_2.4:MxArray.obj
 0002:000044c0       $unwind$?catch$0@?0???$_Insert_hint@AEAU?$pair@$$CBV?$basic_string@DU?$char_traits@D@std@@V?$allocator@D@2@@std@@H@std@@PEAU?$_Tree_node@U?$pair@$$CBV?$basic_string@DU?$char_traits@D@std@@V?$allocator@D@2@@std@@H@std@@PEAX@2@@?$_Tree@V?$_Tmap_traits@V?$basic_string@DU?$char_traits@D@std@@V?$allocator@D@2@@std@@HU?$less@V?$basic_string@DU?$char_traits@D@std@@V?$allocator@D@2@@std@@@2@V?$allocator@U?$pair@$$CBV?$basic_string@DU?$char_traits@D@std@@V?$allocator@D@2@@std@@H@std@@@2@$0A@@std@@@std@@IEAA?AV?$_Tree_iterator@V?$_Tree_val@U?$_Tree_simple_types@U?$pair@$$CBV?$basic_string@DU?$char_traits@D@std@@V?$allocator@D@2@@std@@H@std@@@std@@@std@@@1@V?$_Tree_const_iterator@V?$_Tree_val@U?$_Tree_simple_types@U?$pair@$$CBV?$basic_string@DU?$char_traits@D@std@@V?$allocator@D@2@@std@@H@std@@@std@@@std@@@1@AEAU?$pair@$$CBV?$basic_string@DU?$char_traits@D@std@@V?$allocator@D@2@@std@@H@1@PEAU?$_Tree_node@U?$pair@$$CBV?$basic_string@DU?$char_traits@D@std@@V?$allocator@D@2@@std@@H@std@@PEAX@1@@Z@4HA 00000001800124c0     mex_opencv_2.4:MxArray.obj
 0002:000044d0       $unwind$??$_Copy_nodes@U?$integral_constant@_N$0A@@std@@@?$_Tree@V?$_Tmap_traits@V?$basic_string@DU?$char_traits@D@std@@V?$allocator@D@2@@std@@HU?$less@V?$basic_string@DU?$char_traits@D@std@@V?$allocator@D@2@@std@@@2@V?$allocator@U?$pair@$$CBV?$basic_string@DU?$char_traits@D@std@@V?$allocator@D@2@@std@@H@std@@@2@$0A@@std@@@std@@IEAAPEAU?$_Tree_node@U?$pair@$$CBV?$basic_string@DU?$char_traits@D@std@@V?$allocator@D@2@@std@@H@std@@PEAX@1@PEAU21@0U?$integral_constant@_N$0A@@1@@Z 00000001800124d0     mex_opencv_2.4:MxArray.obj
 0002:000044e4       $tryMap$??$_Copy_nodes@U?$integral_constant@_N$0A@@std@@@?$_Tree@V?$_Tmap_traits@V?$basic_string@DU?$char_traits@D@std@@V?$allocator@D@2@@std@@HU?$less@V?$basic_string@DU?$char_traits@D@std@@V?$allocator@D@2@@std@@@2@V?$allocator@U?$pair@$$CBV?$basic_string@DU?$char_traits@D@std@@V?$allocator@D@2@@std@@H@std@@@2@$0A@@std@@@std@@IEAAPEAU?$_Tree_node@U?$pair@$$CBV?$basic_string@DU?$char_traits@D@std@@V?$allocator@D@2@@std@@H@std@@PEAX@1@PEAU21@0U?$integral_constant@_N$0A@@1@@Z 00000001800124e4     mex_opencv_2.4:MxArray.obj
 0002:000044f8       $handlerMap$0$??$_Copy_nodes@U?$integral_constant@_N$0A@@std@@@?$_Tree@V?$_Tmap_traits@V?$basic_string@DU?$char_traits@D@std@@V?$allocator@D@2@@std@@HU?$less@V?$basic_string@DU?$char_traits@D@std@@V?$allocator@D@2@@std@@@2@V?$allocator@U?$pair@$$CBV?$basic_string@DU?$char_traits@D@std@@V?$allocator@D@2@@std@@H@std@@@2@$0A@@std@@@std@@IEAAPEAU?$_Tree_node@U?$pair@$$CBV?$basic_string@DU?$char_traits@D@std@@V?$allocator@D@2@@std@@H@std@@PEAX@1@PEAU21@0U?$integral_constant@_N$0A@@1@@Z 00000001800124f8     mex_opencv_2.4:MxArray.obj
 0002:00004510       $ip2state$??$_Copy_nodes@U?$integral_constant@_N$0A@@std@@@?$_Tree@V?$_Tmap_traits@V?$basic_string@DU?$char_traits@D@std@@V?$allocator@D@2@@std@@HU?$less@V?$basic_string@DU?$char_traits@D@std@@V?$allocator@D@2@@std@@@2@V?$allocator@U?$pair@$$CBV?$basic_string@DU?$char_traits@D@std@@V?$allocator@D@2@@std@@H@std@@@2@$0A@@std@@@std@@IEAAPEAU?$_Tree_node@U?$pair@$$CBV?$basic_string@DU?$char_traits@D@std@@V?$allocator@D@2@@std@@H@std@@PEAX@1@PEAU21@0U?$integral_constant@_N$0A@@1@@Z 0000000180012510     mex_opencv_2.4:MxArray.obj
 0002:00004538       $unwind$?catch$0@?0???$_Copy_nodes@U?$integral_constant@_N$0A@@std@@@?$_Tree@V?$_Tmap_traits@V?$basic_string@DU?$char_traits@D@std@@V?$allocator@D@2@@std@@HU?$less@V?$basic_string@DU?$char_traits@D@std@@V?$allocator@D@2@@std@@@2@V?$allocator@U?$pair@$$CBV?$basic_string@DU?$char_traits@D@std@@V?$allocator@D@2@@std@@H@std@@@2@$0A@@std@@@std@@IEAAPEAU?$_Tree_node@U?$pair@$$CBV?$basic_string@DU?$char_traits@D@std@@V?$allocator@D@2@@std@@H@std@@PEAX@1@PEAU21@0U?$integral_constant@_N$0A@@1@@Z@4HA 0000000180012538     mex_opencv_2.4:MxArray.obj
 0002:00004548       $unwind$??$_Insert_hint@AEAU?$pair@$$CBW4mxClassID@@H@std@@PEAU?$_Tree_node@U?$pair@$$CBW4mxClassID@@H@std@@PEAX@2@@?$_Tree@V?$_Tmap_traits@W4mxClassID@@HU?$less@W4mxClassID@@@std@@V?$allocator@U?$pair@$$CBW4mxClassID@@H@std@@@3@$0A@@std@@@std@@IEAA?AV?$_Tree_iterator@V?$_Tree_val@U?$_Tree_simple_types@U?$pair@$$CBW4mxClassID@@H@std@@@std@@@std@@@1@V?$_Tree_const_iterator@V?$_Tree_val@U?$_Tree_simple_types@U?$pair@$$CBW4mxClassID@@H@std@@@std@@@std@@@1@AEAU?$pair@$$CBW4mxClassID@@H@1@PEAU?$_Tree_node@U?$pair@$$CBW4mxClassID@@H@std@@PEAX@1@@Z 0000000180012548     mex_opencv_2.4:MxArray.obj
 0002:00004548       $unwind$??$_Insert_hint@AEAU?$pair@$$CBHW4mxClassID@@@std@@PEAU?$_Tree_node@U?$pair@$$CBHW4mxClassID@@@std@@PEAX@2@@?$_Tree@V?$_Tmap_traits@HW4mxClassID@@U?$less@H@std@@V?$allocator@U?$pair@$$CBHW4mxClassID@@@std@@@3@$0A@@std@@@std@@IEAA?AV?$_Tree_iterator@V?$_Tree_val@U?$_Tree_simple_types@U?$pair@$$CBHW4mxClassID@@@std@@@std@@@std@@@1@V?$_Tree_const_iterator@V?$_Tree_val@U?$_Tree_simple_types@U?$pair@$$CBHW4mxClassID@@@std@@@std@@@std@@@1@AEAU?$pair@$$CBHW4mxClassID@@@1@PEAU?$_Tree_node@U?$pair@$$CBHW4mxClassID@@@std@@PEAX@1@@Z 0000000180012548     mex_opencv_2.4:MxArray.obj
 0002:00004560       $tryMap$??$_Insert_hint@AEAU?$pair@$$CBHW4mxClassID@@@std@@PEAU?$_Tree_node@U?$pair@$$CBHW4mxClassID@@@std@@PEAX@2@@?$_Tree@V?$_Tmap_traits@HW4mxClassID@@U?$less@H@std@@V?$allocator@U?$pair@$$CBHW4mxClassID@@@std@@@3@$0A@@std@@@std@@IEAA?AV?$_Tree_iterator@V?$_Tree_val@U?$_Tree_simple_types@U?$pair@$$CBHW4mxClassID@@@std@@@std@@@std@@@1@V?$_Tree_const_iterator@V?$_Tree_val@U?$_Tree_simple_types@U?$pair@$$CBHW4mxClassID@@@std@@@std@@@std@@@1@AEAU?$pair@$$CBHW4mxClassID@@@1@PEAU?$_Tree_node@U?$pair@$$CBHW4mxClassID@@@std@@PEAX@1@@Z 0000000180012560     mex_opencv_2.4:MxArray.obj
 0002:00004560       $tryMap$??$_Insert_hint@AEAU?$pair@$$CBW4mxClassID@@H@std@@PEAU?$_Tree_node@U?$pair@$$CBW4mxClassID@@H@std@@PEAX@2@@?$_Tree@V?$_Tmap_traits@W4mxClassID@@HU?$less@W4mxClassID@@@std@@V?$allocator@U?$pair@$$CBW4mxClassID@@H@std@@@3@$0A@@std@@@std@@IEAA?AV?$_Tree_iterator@V?$_Tree_val@U?$_Tree_simple_types@U?$pair@$$CBW4mxClassID@@H@std@@@std@@@std@@@1@V?$_Tree_const_iterator@V?$_Tree_val@U?$_Tree_simple_types@U?$pair@$$CBW4mxClassID@@H@std@@@std@@@std@@@1@AEAU?$pair@$$CBW4mxClassID@@H@1@PEAU?$_Tree_node@U?$pair@$$CBW4mxClassID@@H@std@@PEAX@1@@Z 0000000180012560     mex_opencv_2.4:MxArray.obj
 0002:00004574       $handlerMap$0$??$_Insert_hint@AEAU?$pair@$$CBW4mxClassID@@H@std@@PEAU?$_Tree_node@U?$pair@$$CBW4mxClassID@@H@std@@PEAX@2@@?$_Tree@V?$_Tmap_traits@W4mxClassID@@HU?$less@W4mxClassID@@@std@@V?$allocator@U?$pair@$$CBW4mxClassID@@H@std@@@3@$0A@@std@@@std@@IEAA?AV?$_Tree_iterator@V?$_Tree_val@U?$_Tree_simple_types@U?$pair@$$CBW4mxClassID@@H@std@@@std@@@std@@@1@V?$_Tree_const_iterator@V?$_Tree_val@U?$_Tree_simple_types@U?$pair@$$CBW4mxClassID@@H@std@@@std@@@std@@@1@AEAU?$pair@$$CBW4mxClassID@@H@1@PEAU?$_Tree_node@U?$pair@$$CBW4mxClassID@@H@std@@PEAX@1@@Z 0000000180012574     mex_opencv_2.4:MxArray.obj
 0002:00004574       $handlerMap$0$??$_Insert_hint@AEAU?$pair@$$CBHW4mxClassID@@@std@@PEAU?$_Tree_node@U?$pair@$$CBHW4mxClassID@@@std@@PEAX@2@@?$_Tree@V?$_Tmap_traits@HW4mxClassID@@U?$less@H@std@@V?$allocator@U?$pair@$$CBHW4mxClassID@@@std@@@3@$0A@@std@@@std@@IEAA?AV?$_Tree_iterator@V?$_Tree_val@U?$_Tree_simple_types@U?$pair@$$CBHW4mxClassID@@@std@@@std@@@std@@@1@V?$_Tree_const_iterator@V?$_Tree_val@U?$_Tree_simple_types@U?$pair@$$CBHW4mxClassID@@@std@@@std@@@std@@@1@AEAU?$pair@$$CBHW4mxClassID@@@1@PEAU?$_Tree_node@U?$pair@$$CBHW4mxClassID@@@std@@PEAX@1@@Z 0000000180012574     mex_opencv_2.4:MxArray.obj
 0002:00004588       $ip2state$??$_Insert_hint@AEAU?$pair@$$CBHW4mxClassID@@@std@@PEAU?$_Tree_node@U?$pair@$$CBHW4mxClassID@@@std@@PEAX@2@@?$_Tree@V?$_Tmap_traits@HW4mxClassID@@U?$less@H@std@@V?$allocator@U?$pair@$$CBHW4mxClassID@@@std@@@3@$0A@@std@@@std@@IEAA?AV?$_Tree_iterator@V?$_Tree_val@U?$_Tree_simple_types@U?$pair@$$CBHW4mxClassID@@@std@@@std@@@std@@@1@V?$_Tree_const_iterator@V?$_Tree_val@U?$_Tree_simple_types@U?$pair@$$CBHW4mxClassID@@@std@@@std@@@std@@@1@AEAU?$pair@$$CBHW4mxClassID@@@1@PEAU?$_Tree_node@U?$pair@$$CBHW4mxClassID@@@std@@PEAX@1@@Z 0000000180012588     mex_opencv_2.4:MxArray.obj
 0002:00004588       $ip2state$??$_Insert_hint@AEAU?$pair@$$CBW4mxClassID@@H@std@@PEAU?$_Tree_node@U?$pair@$$CBW4mxClassID@@H@std@@PEAX@2@@?$_Tree@V?$_Tmap_traits@W4mxClassID@@HU?$less@W4mxClassID@@@std@@V?$allocator@U?$pair@$$CBW4mxClassID@@H@std@@@3@$0A@@std@@@std@@IEAA?AV?$_Tree_iterator@V?$_Tree_val@U?$_Tree_simple_types@U?$pair@$$CBW4mxClassID@@H@std@@@std@@@std@@@1@V?$_Tree_const_iterator@V?$_Tree_val@U?$_Tree_simple_types@U?$pair@$$CBW4mxClassID@@H@std@@@std@@@std@@@1@AEAU?$pair@$$CBW4mxClassID@@H@1@PEAU?$_Tree_node@U?$pair@$$CBW4mxClassID@@H@std@@PEAX@1@@Z 0000000180012588     mex_opencv_2.4:MxArray.obj
 0002:000045b0       $unwind$?catch$0@?0???$_Insert_hint@AEAU?$pair@$$CBHW4mxClassID@@@std@@PEAU?$_Tree_node@U?$pair@$$CBHW4mxClassID@@@std@@PEAX@2@@?$_Tree@V?$_Tmap_traits@HW4mxClassID@@U?$less@H@std@@V?$allocator@U?$pair@$$CBHW4mxClassID@@@std@@@3@$0A@@std@@@std@@IEAA?AV?$_Tree_iterator@V?$_Tree_val@U?$_Tree_simple_types@U?$pair@$$CBHW4mxClassID@@@std@@@std@@@std@@@1@V?$_Tree_const_iterator@V?$_Tree_val@U?$_Tree_simple_types@U?$pair@$$CBHW4mxClassID@@@std@@@std@@@std@@@1@AEAU?$pair@$$CBHW4mxClassID@@@1@PEAU?$_Tree_node@U?$pair@$$CBHW4mxClassID@@@std@@PEAX@1@@Z@4HA 00000001800125b0     mex_opencv_2.4:MxArray.obj
 0002:000045b0       $unwind$?catch$0@?0???$_Insert_hint@AEAU?$pair@$$CBW4mxClassID@@H@std@@PEAU?$_Tree_node@U?$pair@$$CBW4mxClassID@@H@std@@PEAX@2@@?$_Tree@V?$_Tmap_traits@W4mxClassID@@HU?$less@W4mxClassID@@@std@@V?$allocator@U?$pair@$$CBW4mxClassID@@H@std@@@3@$0A@@std@@@std@@IEAA?AV?$_Tree_iterator@V?$_Tree_val@U?$_Tree_simple_types@U?$pair@$$CBW4mxClassID@@H@std@@@std@@@std@@@1@V?$_Tree_const_iterator@V?$_Tree_val@U?$_Tree_simple_types@U?$pair@$$CBW4mxClassID@@H@std@@@std@@@std@@@1@AEAU?$pair@$$CBW4mxClassID@@H@1@PEAU?$_Tree_node@U?$pair@$$CBW4mxClassID@@H@std@@PEAX@1@@Z@4HA 00000001800125b0     mex_opencv_2.4:MxArray.obj
 0002:000045c0       $unwind$??$_Copy_nodes@U?$integral_constant@_N$0A@@std@@@?$_Tree@V?$_Tmap_traits@HW4mxClassID@@U?$less@H@std@@V?$allocator@U?$pair@$$CBHW4mxClassID@@@std@@@3@$0A@@std@@@std@@IEAAPEAU?$_Tree_node@U?$pair@$$CBHW4mxClassID@@@std@@PEAX@1@PEAU21@0U?$integral_constant@_N$0A@@1@@Z 00000001800125c0     mex_opencv_2.4:MxArray.obj
 0002:000045c0       $unwind$??$_Copy_nodes@U?$integral_constant@_N$0A@@std@@@?$_Tree@V?$_Tmap_traits@W4mxClassID@@HU?$less@W4mxClassID@@@std@@V?$allocator@U?$pair@$$CBW4mxClassID@@H@std@@@3@$0A@@std@@@std@@IEAAPEAU?$_Tree_node@U?$pair@$$CBW4mxClassID@@H@std@@PEAX@1@PEAU21@0U?$integral_constant@_N$0A@@1@@Z 00000001800125c0     mex_opencv_2.4:MxArray.obj
 0002:000045d4       $tryMap$??$_Copy_nodes@U?$integral_constant@_N$0A@@std@@@?$_Tree@V?$_Tmap_traits@W4mxClassID@@HU?$less@W4mxClassID@@@std@@V?$allocator@U?$pair@$$CBW4mxClassID@@H@std@@@3@$0A@@std@@@std@@IEAAPEAU?$_Tree_node@U?$pair@$$CBW4mxClassID@@H@std@@PEAX@1@PEAU21@0U?$integral_constant@_N$0A@@1@@Z 00000001800125d4     mex_opencv_2.4:MxArray.obj
 0002:000045d4       $tryMap$??$_Copy_nodes@U?$integral_constant@_N$0A@@std@@@?$_Tree@V?$_Tmap_traits@HW4mxClassID@@U?$less@H@std@@V?$allocator@U?$pair@$$CBHW4mxClassID@@@std@@@3@$0A@@std@@@std@@IEAAPEAU?$_Tree_node@U?$pair@$$CBHW4mxClassID@@@std@@PEAX@1@PEAU21@0U?$integral_constant@_N$0A@@1@@Z 00000001800125d4     mex_opencv_2.4:MxArray.obj
 0002:000045e8       $handlerMap$0$??$_Copy_nodes@U?$integral_constant@_N$0A@@std@@@?$_Tree@V?$_Tmap_traits@W4mxClassID@@HU?$less@W4mxClassID@@@std@@V?$allocator@U?$pair@$$CBW4mxClassID@@H@std@@@3@$0A@@std@@@std@@IEAAPEAU?$_Tree_node@U?$pair@$$CBW4mxClassID@@H@std@@PEAX@1@PEAU21@0U?$integral_constant@_N$0A@@1@@Z 00000001800125e8     mex_opencv_2.4:MxArray.obj
 0002:000045e8       $handlerMap$0$??$_Copy_nodes@U?$integral_constant@_N$0A@@std@@@?$_Tree@V?$_Tmap_traits@HW4mxClassID@@U?$less@H@std@@V?$allocator@U?$pair@$$CBHW4mxClassID@@@std@@@3@$0A@@std@@@std@@IEAAPEAU?$_Tree_node@U?$pair@$$CBHW4mxClassID@@@std@@PEAX@1@PEAU21@0U?$integral_constant@_N$0A@@1@@Z 00000001800125e8     mex_opencv_2.4:MxArray.obj
 0002:00004600       $ip2state$??$_Copy_nodes@U?$integral_constant@_N$0A@@std@@@?$_Tree@V?$_Tmap_traits@W4mxClassID@@HU?$less@W4mxClassID@@@std@@V?$allocator@U?$pair@$$CBW4mxClassID@@H@std@@@3@$0A@@std@@@std@@IEAAPEAU?$_Tree_node@U?$pair@$$CBW4mxClassID@@H@std@@PEAX@1@PEAU21@0U?$integral_constant@_N$0A@@1@@Z 0000000180012600     mex_opencv_2.4:MxArray.obj
 0002:00004600       $ip2state$??$_Copy_nodes@U?$integral_constant@_N$0A@@std@@@?$_Tree@V?$_Tmap_traits@HW4mxClassID@@U?$less@H@std@@V?$allocator@U?$pair@$$CBHW4mxClassID@@@std@@@3@$0A@@std@@@std@@IEAAPEAU?$_Tree_node@U?$pair@$$CBHW4mxClassID@@@std@@PEAX@1@PEAU21@0U?$integral_constant@_N$0A@@1@@Z 0000000180012600     mex_opencv_2.4:MxArray.obj
 0002:00004628       $unwind$?catch$0@?0???$_Copy_nodes@U?$integral_constant@_N$0A@@std@@@?$_Tree@V?$_Tmap_traits@W4mxClassID@@HU?$less@W4mxClassID@@@std@@V?$allocator@U?$pair@$$CBW4mxClassID@@H@std@@@3@$0A@@std@@@std@@IEAAPEAU?$_Tree_node@U?$pair@$$CBW4mxClassID@@H@std@@PEAX@1@PEAU21@0U?$integral_constant@_N$0A@@1@@Z@4HA 0000000180012628     mex_opencv_2.4:MxArray.obj
 0002:00004628       $unwind$?catch$0@?0???$_Copy_nodes@U?$integral_constant@_N$0A@@std@@@?$_Tree@V?$_Tmap_traits@HW4mxClassID@@U?$less@H@std@@V?$allocator@U?$pair@$$CBHW4mxClassID@@@std@@@3@$0A@@std@@@std@@IEAAPEAU?$_Tree_node@U?$pair@$$CBHW4mxClassID@@@std@@PEAX@1@PEAU21@0U?$integral_constant@_N$0A@@1@@Z@4HA 0000000180012628     mex_opencv_2.4:MxArray.obj
 0002:00004640       $unwind$??$_Insert_hint@AEAU?$pair@$$CBHV?$basic_string@DU?$char_traits@D@std@@V?$allocator@D@2@@std@@@std@@PEAU?$_Tree_node@U?$pair@$$CBHV?$basic_string@DU?$char_traits@D@std@@V?$allocator@D@2@@std@@@std@@PEAX@2@@?$_Tree@V?$_Tmap_traits@HV?$basic_string@DU?$char_traits@D@std@@V?$allocator@D@2@@std@@U?$less@H@2@V?$allocator@U?$pair@$$CBHV?$basic_string@DU?$char_traits@D@std@@V?$allocator@D@2@@std@@@std@@@2@$0A@@std@@@std@@IEAA?AV?$_Tree_iterator@V?$_Tree_val@U?$_Tree_simple_types@U?$pair@$$CBHV?$basic_string@DU?$char_traits@D@std@@V?$allocator@D@2@@std@@@std@@@std@@@std@@@1@V?$_Tree_const_iterator@V?$_Tree_val@U?$_Tree_simple_types@U?$pair@$$CBHV?$basic_string@DU?$char_traits@D@std@@V?$allocator@D@2@@std@@@std@@@std@@@std@@@1@AEAU?$pair@$$CBHV?$basic_string@DU?$char_traits@D@std@@V?$allocator@D@2@@std@@@1@PEAU?$_Tree_node@U?$pair@$$CBHV?$basic_string@DU?$char_traits@D@std@@V?$allocator@D@2@@std@@@std@@PEAX@1@@Z 0000000180012640     mex_opencv_2.4:MxArray.obj
 0002:00004658       $tryMap$??$_Insert_hint@AEAU?$pair@$$CBHV?$basic_string@DU?$char_traits@D@std@@V?$allocator@D@2@@std@@@std@@PEAU?$_Tree_node@U?$pair@$$CBHV?$basic_string@DU?$char_traits@D@std@@V?$allocator@D@2@@std@@@std@@PEAX@2@@?$_Tree@V?$_Tmap_traits@HV?$basic_string@DU?$char_traits@D@std@@V?$allocator@D@2@@std@@U?$less@H@2@V?$allocator@U?$pair@$$CBHV?$basic_string@DU?$char_traits@D@std@@V?$allocator@D@2@@std@@@std@@@2@$0A@@std@@@std@@IEAA?AV?$_Tree_iterator@V?$_Tree_val@U?$_Tree_simple_types@U?$pair@$$CBHV?$basic_string@DU?$char_traits@D@std@@V?$allocator@D@2@@std@@@std@@@std@@@std@@@1@V?$_Tree_const_iterator@V?$_Tree_val@U?$_Tree_simple_types@U?$pair@$$CBHV?$basic_string@DU?$char_traits@D@std@@V?$allocator@D@2@@std@@@std@@@std@@@std@@@1@AEAU?$pair@$$CBHV?$basic_string@DU?$char_traits@D@std@@V?$allocator@D@2@@std@@@1@PEAU?$_Tree_node@U?$pair@$$CBHV?$basic_string@DU?$char_traits@D@std@@V?$allocator@D@2@@std@@@std@@PEAX@1@@Z 0000000180012658     mex_opencv_2.4:MxArray.obj
 0002:0000466c       $handlerMap$0$??$_Insert_hint@AEAU?$pair@$$CBHV?$basic_string@DU?$char_traits@D@std@@V?$allocator@D@2@@std@@@std@@PEAU?$_Tree_node@U?$pair@$$CBHV?$basic_string@DU?$char_traits@D@std@@V?$allocator@D@2@@std@@@std@@PEAX@2@@?$_Tree@V?$_Tmap_traits@HV?$basic_string@DU?$char_traits@D@std@@V?$allocator@D@2@@std@@U?$less@H@2@V?$allocator@U?$pair@$$CBHV?$basic_string@DU?$char_traits@D@std@@V?$allocator@D@2@@std@@@std@@@2@$0A@@std@@@std@@IEAA?AV?$_Tree_iterator@V?$_Tree_val@U?$_Tree_simple_types@U?$pair@$$CBHV?$basic_string@DU?$char_traits@D@std@@V?$allocator@D@2@@std@@@std@@@std@@@std@@@1@V?$_Tree_const_iterator@V?$_Tree_val@U?$_Tree_simple_types@U?$pair@$$CBHV?$basic_string@DU?$char_traits@D@std@@V?$allocator@D@2@@std@@@std@@@std@@@std@@@1@AEAU?$pair@$$CBHV?$basic_string@DU?$char_traits@D@std@@V?$allocator@D@2@@std@@@1@PEAU?$_Tree_node@U?$pair@$$CBHV?$basic_string@DU?$char_traits@D@std@@V?$allocator@D@2@@std@@@std@@PEAX@1@@Z 000000018001266c     mex_opencv_2.4:MxArray.obj
 0002:00004680       $ip2state$??$_Insert_hint@AEAU?$pair@$$CBHV?$basic_string@DU?$char_traits@D@std@@V?$allocator@D@2@@std@@@std@@PEAU?$_Tree_node@U?$pair@$$CBHV?$basic_string@DU?$char_traits@D@std@@V?$allocator@D@2@@std@@@std@@PEAX@2@@?$_Tree@V?$_Tmap_traits@HV?$basic_string@DU?$char_traits@D@std@@V?$allocator@D@2@@std@@U?$less@H@2@V?$allocator@U?$pair@$$CBHV?$basic_string@DU?$char_traits@D@std@@V?$allocator@D@2@@std@@@std@@@2@$0A@@std@@@std@@IEAA?AV?$_Tree_iterator@V?$_Tree_val@U?$_Tree_simple_types@U?$pair@$$CBHV?$basic_string@DU?$char_traits@D@std@@V?$allocator@D@2@@std@@@std@@@std@@@std@@@1@V?$_Tree_const_iterator@V?$_Tree_val@U?$_Tree_simple_types@U?$pair@$$CBHV?$basic_string@DU?$char_traits@D@std@@V?$allocator@D@2@@std@@@std@@@std@@@std@@@1@AEAU?$pair@$$CBHV?$basic_string@DU?$char_traits@D@std@@V?$allocator@D@2@@std@@@1@PEAU?$_Tree_node@U?$pair@$$CBHV?$basic_string@DU?$char_traits@D@std@@V?$allocator@D@2@@std@@@std@@PEAX@1@@Z 0000000180012680     mex_opencv_2.4:MxArray.obj
 0002:000046a8       $unwind$?catch$0@?0???$_Insert_hint@AEAU?$pair@$$CBHV?$basic_string@DU?$char_traits@D@std@@V?$allocator@D@2@@std@@@std@@PEAU?$_Tree_node@U?$pair@$$CBHV?$basic_string@DU?$char_traits@D@std@@V?$allocator@D@2@@std@@@std@@PEAX@2@@?$_Tree@V?$_Tmap_traits@HV?$basic_string@DU?$char_traits@D@std@@V?$allocator@D@2@@std@@U?$less@H@2@V?$allocator@U?$pair@$$CBHV?$basic_string@DU?$char_traits@D@std@@V?$allocator@D@2@@std@@@std@@@2@$0A@@std@@@std@@IEAA?AV?$_Tree_iterator@V?$_Tree_val@U?$_Tree_simple_types@U?$pair@$$CBHV?$basic_string@DU?$char_traits@D@std@@V?$allocator@D@2@@std@@@std@@@std@@@std@@@1@V?$_Tree_const_iterator@V?$_Tree_val@U?$_Tree_simple_types@U?$pair@$$CBHV?$basic_string@DU?$char_traits@D@std@@V?$allocator@D@2@@std@@@std@@@std@@@std@@@1@AEAU?$pair@$$CBHV?$basic_string@DU?$char_traits@D@std@@V?$allocator@D@2@@std@@@1@PEAU?$_Tree_node@U?$pair@$$CBHV?$basic_string@DU?$char_traits@D@std@@V?$allocator@D@2@@std@@@std@@PEAX@1@@Z@4HA 00000001800126a8     mex_opencv_2.4:MxArray.obj
 0002:000046b8       $unwind$??$_Copy_nodes@U?$integral_constant@_N$0A@@std@@@?$_Tree@V?$_Tmap_traits@HV?$basic_string@DU?$char_traits@D@std@@V?$allocator@D@2@@std@@U?$less@H@2@V?$allocator@U?$pair@$$CBHV?$basic_string@DU?$char_traits@D@std@@V?$allocator@D@2@@std@@@std@@@2@$0A@@std@@@std@@IEAAPEAU?$_Tree_node@U?$pair@$$CBHV?$basic_string@DU?$char_traits@D@std@@V?$allocator@D@2@@std@@@std@@PEAX@1@PEAU21@0U?$integral_constant@_N$0A@@1@@Z 00000001800126b8     mex_opencv_2.4:MxArray.obj
 0002:000046cc       $tryMap$??$_Copy_nodes@U?$integral_constant@_N$0A@@std@@@?$_Tree@V?$_Tmap_traits@HV?$basic_string@DU?$char_traits@D@std@@V?$allocator@D@2@@std@@U?$less@H@2@V?$allocator@U?$pair@$$CBHV?$basic_string@DU?$char_traits@D@std@@V?$allocator@D@2@@std@@@std@@@2@$0A@@std@@@std@@IEAAPEAU?$_Tree_node@U?$pair@$$CBHV?$basic_string@DU?$char_traits@D@std@@V?$allocator@D@2@@std@@@std@@PEAX@1@PEAU21@0U?$integral_constant@_N$0A@@1@@Z 00000001800126cc     mex_opencv_2.4:MxArray.obj
 0002:000046e0       $handlerMap$0$??$_Copy_nodes@U?$integral_constant@_N$0A@@std@@@?$_Tree@V?$_Tmap_traits@HV?$basic_string@DU?$char_traits@D@std@@V?$allocator@D@2@@std@@U?$less@H@2@V?$allocator@U?$pair@$$CBHV?$basic_string@DU?$char_traits@D@std@@V?$allocator@D@2@@std@@@std@@@2@$0A@@std@@@std@@IEAAPEAU?$_Tree_node@U?$pair@$$CBHV?$basic_string@DU?$char_traits@D@std@@V?$allocator@D@2@@std@@@std@@PEAX@1@PEAU21@0U?$integral_constant@_N$0A@@1@@Z 00000001800126e0     mex_opencv_2.4:MxArray.obj
 0002:000046f8       $ip2state$??$_Copy_nodes@U?$integral_constant@_N$0A@@std@@@?$_Tree@V?$_Tmap_traits@HV?$basic_string@DU?$char_traits@D@std@@V?$allocator@D@2@@std@@U?$less@H@2@V?$allocator@U?$pair@$$CBHV?$basic_string@DU?$char_traits@D@std@@V?$allocator@D@2@@std@@@std@@@2@$0A@@std@@@std@@IEAAPEAU?$_Tree_node@U?$pair@$$CBHV?$basic_string@DU?$char_traits@D@std@@V?$allocator@D@2@@std@@@std@@PEAX@1@PEAU21@0U?$integral_constant@_N$0A@@1@@Z 00000001800126f8     mex_opencv_2.4:MxArray.obj
 0002:00004720       $unwind$?catch$0@?0???$_Copy_nodes@U?$integral_constant@_N$0A@@std@@@?$_Tree@V?$_Tmap_traits@HV?$basic_string@DU?$char_traits@D@std@@V?$allocator@D@2@@std@@U?$less@H@2@V?$allocator@U?$pair@$$CBHV?$basic_string@DU?$char_traits@D@std@@V?$allocator@D@2@@std@@@std@@@2@$0A@@std@@@std@@IEAAPEAU?$_Tree_node@U?$pair@$$CBHV?$basic_string@DU?$char_traits@D@std@@V?$allocator@D@2@@std@@@std@@PEAX@1@PEAU21@0U?$integral_constant@_N$0A@@1@@Z@4HA 0000000180012720     mex_opencv_2.4:MxArray.obj
 0002:00004730       $unwind$??$_Insert_nohint@AEAU?$pair@$$CBV?$basic_string@DU?$char_traits@D@std@@V?$allocator@D@2@@std@@H@std@@PEAU?$_Tree_node@U?$pair@$$CBV?$basic_string@DU?$char_traits@D@std@@V?$allocator@D@2@@std@@H@std@@PEAX@2@@?$_Tree@V?$_Tmap_traits@V?$basic_string@DU?$char_traits@D@std@@V?$allocator@D@2@@std@@HU?$less@V?$basic_string@DU?$char_traits@D@std@@V?$allocator@D@2@@std@@@2@V?$allocator@U?$pair@$$CBV?$basic_string@DU?$char_traits@D@std@@V?$allocator@D@2@@std@@H@std@@@2@$0A@@std@@@std@@IEAA?AU?$pair@V?$_Tree_iterator@V?$_Tree_val@U?$_Tree_simple_types@U?$pair@$$CBV?$basic_string@DU?$char_traits@D@std@@V?$allocator@D@2@@std@@H@std@@@std@@@std@@@std@@_N@1@_NAEAU?$pair@$$CBV?$basic_string@DU?$char_traits@D@std@@V?$allocator@D@2@@std@@H@1@PEAU?$_Tree_node@U?$pair@$$CBV?$basic_string@DU?$char_traits@D@std@@V?$allocator@D@2@@std@@H@std@@PEAX@1@@Z 0000000180012730     mex_opencv_2.4:MxArray.obj
 0002:00004750       $tryMap$??$_Insert_nohint@AEAU?$pair@$$CBV?$basic_string@DU?$char_traits@D@std@@V?$allocator@D@2@@std@@H@std@@PEAU?$_Tree_node@U?$pair@$$CBV?$basic_string@DU?$char_traits@D@std@@V?$allocator@D@2@@std@@H@std@@PEAX@2@@?$_Tree@V?$_Tmap_traits@V?$basic_string@DU?$char_traits@D@std@@V?$allocator@D@2@@std@@HU?$less@V?$basic_string@DU?$char_traits@D@std@@V?$allocator@D@2@@std@@@2@V?$allocator@U?$pair@$$CBV?$basic_string@DU?$char_traits@D@std@@V?$allocator@D@2@@std@@H@std@@@2@$0A@@std@@@std@@IEAA?AU?$pair@V?$_Tree_iterator@V?$_Tree_val@U?$_Tree_simple_types@U?$pair@$$CBV?$basic_string@DU?$char_traits@D@std@@V?$allocator@D@2@@std@@H@std@@@std@@@std@@@std@@_N@1@_NAEAU?$pair@$$CBV?$basic_string@DU?$char_traits@D@std@@V?$allocator@D@2@@std@@H@1@PEAU?$_Tree_node@U?$pair@$$CBV?$basic_string@DU?$char_traits@D@std@@V?$allocator@D@2@@std@@H@std@@PEAX@1@@Z 0000000180012750     mex_opencv_2.4:MxArray.obj
 0002:00004764       $handlerMap$0$??$_Insert_nohint@AEAU?$pair@$$CBV?$basic_string@DU?$char_traits@D@std@@V?$allocator@D@2@@std@@H@std@@PEAU?$_Tree_node@U?$pair@$$CBV?$basic_string@DU?$char_traits@D@std@@V?$allocator@D@2@@std@@H@std@@PEAX@2@@?$_Tree@V?$_Tmap_traits@V?$basic_string@DU?$char_traits@D@std@@V?$allocator@D@2@@std@@HU?$less@V?$basic_string@DU?$char_traits@D@std@@V?$allocator@D@2@@std@@@2@V?$allocator@U?$pair@$$CBV?$basic_string@DU?$char_traits@D@std@@V?$allocator@D@2@@std@@H@std@@@2@$0A@@std@@@std@@IEAA?AU?$pair@V?$_Tree_iterator@V?$_Tree_val@U?$_Tree_simple_types@U?$pair@$$CBV?$basic_string@DU?$char_traits@D@std@@V?$allocator@D@2@@std@@H@std@@@std@@@std@@@std@@_N@1@_NAEAU?$pair@$$CBV?$basic_string@DU?$char_traits@D@std@@V?$allocator@D@2@@std@@H@1@PEAU?$_Tree_node@U?$pair@$$CBV?$basic_string@DU?$char_traits@D@std@@V?$allocator@D@2@@std@@H@std@@PEAX@1@@Z 0000000180012764     mex_opencv_2.4:MxArray.obj
 0002:00004778       $ip2state$??$_Insert_nohint@AEAU?$pair@$$CBV?$basic_string@DU?$char_traits@D@std@@V?$allocator@D@2@@std@@H@std@@PEAU?$_Tree_node@U?$pair@$$CBV?$basic_string@DU?$char_traits@D@std@@V?$allocator@D@2@@std@@H@std@@PEAX@2@@?$_Tree@V?$_Tmap_traits@V?$basic_string@DU?$char_traits@D@std@@V?$allocator@D@2@@std@@HU?$less@V?$basic_string@DU?$char_traits@D@std@@V?$allocator@D@2@@std@@@2@V?$allocator@U?$pair@$$CBV?$basic_string@DU?$char_traits@D@std@@V?$allocator@D@2@@std@@H@std@@@2@$0A@@std@@@std@@IEAA?AU?$pair@V?$_Tree_iterator@V?$_Tree_val@U?$_Tree_simple_types@U?$pair@$$CBV?$basic_string@DU?$char_traits@D@std@@V?$allocator@D@2@@std@@H@std@@@std@@@std@@@std@@_N@1@_NAEAU?$pair@$$CBV?$basic_string@DU?$char_traits@D@std@@V?$allocator@D@2@@std@@H@1@PEAU?$_Tree_node@U?$pair@$$CBV?$basic_string@DU?$char_traits@D@std@@V?$allocator@D@2@@std@@H@std@@PEAX@1@@Z 0000000180012778     mex_opencv_2.4:MxArray.obj
 0002:00004790       $unwind$?catch$0@?0???$_Insert_nohint@AEAU?$pair@$$CBV?$basic_string@DU?$char_traits@D@std@@V?$allocator@D@2@@std@@H@std@@PEAU?$_Tree_node@U?$pair@$$CBV?$basic_string@DU?$char_traits@D@std@@V?$allocator@D@2@@std@@H@std@@PEAX@2@@?$_Tree@V?$_Tmap_traits@V?$basic_string@DU?$char_traits@D@std@@V?$allocator@D@2@@std@@HU?$less@V?$basic_string@DU?$char_traits@D@std@@V?$allocator@D@2@@std@@@2@V?$allocator@U?$pair@$$CBV?$basic_string@DU?$char_traits@D@std@@V?$allocator@D@2@@std@@H@std@@@2@$0A@@std@@@std@@IEAA?AU?$pair@V?$_Tree_iterator@V?$_Tree_val@U?$_Tree_simple_types@U?$pair@$$CBV?$basic_string@DU?$char_traits@D@std@@V?$allocator@D@2@@std@@H@std@@@std@@@std@@@std@@_N@1@_NAEAU?$pair@$$CBV?$basic_string@DU?$char_traits@D@std@@V?$allocator@D@2@@std@@H@1@PEAU?$_Tree_node@U?$pair@$$CBV?$basic_string@DU?$char_traits@D@std@@V?$allocator@D@2@@std@@H@std@@PEAX@1@@Z@4HA 0000000180012790     mex_opencv_2.4:MxArray.obj
 0002:000047a0       $unwind$??$_Insert_nohint@AEAU?$pair@$$CBW4mxClassID@@H@std@@PEAU?$_Tree_node@U?$pair@$$CBW4mxClassID@@H@std@@PEAX@2@@?$_Tree@V?$_Tmap_traits@W4mxClassID@@HU?$less@W4mxClassID@@@std@@V?$allocator@U?$pair@$$CBW4mxClassID@@H@std@@@3@$0A@@std@@@std@@IEAA?AU?$pair@V?$_Tree_iterator@V?$_Tree_val@U?$_Tree_simple_types@U?$pair@$$CBW4mxClassID@@H@std@@@std@@@std@@@std@@_N@1@_NAEAU?$pair@$$CBW4mxClassID@@H@1@PEAU?$_Tree_node@U?$pair@$$CBW4mxClassID@@H@std@@PEAX@1@@Z 00000001800127a0     mex_opencv_2.4:MxArray.obj
 0002:000047a0       $unwind$??$_Insert_nohint@AEAU?$pair@$$CBHW4mxClassID@@@std@@PEAU?$_Tree_node@U?$pair@$$CBHW4mxClassID@@@std@@PEAX@2@@?$_Tree@V?$_Tmap_traits@HW4mxClassID@@U?$less@H@std@@V?$allocator@U?$pair@$$CBHW4mxClassID@@@std@@@3@$0A@@std@@@std@@IEAA?AU?$pair@V?$_Tree_iterator@V?$_Tree_val@U?$_Tree_simple_types@U?$pair@$$CBHW4mxClassID@@@std@@@std@@@std@@@std@@_N@1@_NAEAU?$pair@$$CBHW4mxClassID@@@1@PEAU?$_Tree_node@U?$pair@$$CBHW4mxClassID@@@std@@PEAX@1@@Z 00000001800127a0     mex_opencv_2.4:MxArray.obj
 0002:000047b8       $tryMap$??$_Insert_nohint@AEAU?$pair@$$CBW4mxClassID@@H@std@@PEAU?$_Tree_node@U?$pair@$$CBW4mxClassID@@H@std@@PEAX@2@@?$_Tree@V?$_Tmap_traits@W4mxClassID@@HU?$less@W4mxClassID@@@std@@V?$allocator@U?$pair@$$CBW4mxClassID@@H@std@@@3@$0A@@std@@@std@@IEAA?AU?$pair@V?$_Tree_iterator@V?$_Tree_val@U?$_Tree_simple_types@U?$pair@$$CBW4mxClassID@@H@std@@@std@@@std@@@std@@_N@1@_NAEAU?$pair@$$CBW4mxClassID@@H@1@PEAU?$_Tree_node@U?$pair@$$CBW4mxClassID@@H@std@@PEAX@1@@Z 00000001800127b8     mex_opencv_2.4:MxArray.obj
 0002:000047b8       $tryMap$??$_Insert_nohint@AEAU?$pair@$$CBHW4mxClassID@@@std@@PEAU?$_Tree_node@U?$pair@$$CBHW4mxClassID@@@std@@PEAX@2@@?$_Tree@V?$_Tmap_traits@HW4mxClassID@@U?$less@H@std@@V?$allocator@U?$pair@$$CBHW4mxClassID@@@std@@@3@$0A@@std@@@std@@IEAA?AU?$pair@V?$_Tree_iterator@V?$_Tree_val@U?$_Tree_simple_types@U?$pair@$$CBHW4mxClassID@@@std@@@std@@@std@@@std@@_N@1@_NAEAU?$pair@$$CBHW4mxClassID@@@1@PEAU?$_Tree_node@U?$pair@$$CBHW4mxClassID@@@std@@PEAX@1@@Z 00000001800127b8     mex_opencv_2.4:MxArray.obj
 0002:000047cc       $handlerMap$0$??$_Insert_nohint@AEAU?$pair@$$CBHW4mxClassID@@@std@@PEAU?$_Tree_node@U?$pair@$$CBHW4mxClassID@@@std@@PEAX@2@@?$_Tree@V?$_Tmap_traits@HW4mxClassID@@U?$less@H@std@@V?$allocator@U?$pair@$$CBHW4mxClassID@@@std@@@3@$0A@@std@@@std@@IEAA?AU?$pair@V?$_Tree_iterator@V?$_Tree_val@U?$_Tree_simple_types@U?$pair@$$CBHW4mxClassID@@@std@@@std@@@std@@@std@@_N@1@_NAEAU?$pair@$$CBHW4mxClassID@@@1@PEAU?$_Tree_node@U?$pair@$$CBHW4mxClassID@@@std@@PEAX@1@@Z 00000001800127cc     mex_opencv_2.4:MxArray.obj
 0002:000047cc       $handlerMap$0$??$_Insert_nohint@AEAU?$pair@$$CBW4mxClassID@@H@std@@PEAU?$_Tree_node@U?$pair@$$CBW4mxClassID@@H@std@@PEAX@2@@?$_Tree@V?$_Tmap_traits@W4mxClassID@@HU?$less@W4mxClassID@@@std@@V?$allocator@U?$pair@$$CBW4mxClassID@@H@std@@@3@$0A@@std@@@std@@IEAA?AU?$pair@V?$_Tree_iterator@V?$_Tree_val@U?$_Tree_simple_types@U?$pair@$$CBW4mxClassID@@H@std@@@std@@@std@@@std@@_N@1@_NAEAU?$pair@$$CBW4mxClassID@@H@1@PEAU?$_Tree_node@U?$pair@$$CBW4mxClassID@@H@std@@PEAX@1@@Z 00000001800127cc     mex_opencv_2.4:MxArray.obj
 0002:000047e0       $ip2state$??$_Insert_nohint@AEAU?$pair@$$CBW4mxClassID@@H@std@@PEAU?$_Tree_node@U?$pair@$$CBW4mxClassID@@H@std@@PEAX@2@@?$_Tree@V?$_Tmap_traits@W4mxClassID@@HU?$less@W4mxClassID@@@std@@V?$allocator@U?$pair@$$CBW4mxClassID@@H@std@@@3@$0A@@std@@@std@@IEAA?AU?$pair@V?$_Tree_iterator@V?$_Tree_val@U?$_Tree_simple_types@U?$pair@$$CBW4mxClassID@@H@std@@@std@@@std@@@std@@_N@1@_NAEAU?$pair@$$CBW4mxClassID@@H@1@PEAU?$_Tree_node@U?$pair@$$CBW4mxClassID@@H@std@@PEAX@1@@Z 00000001800127e0     mex_opencv_2.4:MxArray.obj
 0002:000047e0       $ip2state$??$_Insert_nohint@AEAU?$pair@$$CBHW4mxClassID@@@std@@PEAU?$_Tree_node@U?$pair@$$CBHW4mxClassID@@@std@@PEAX@2@@?$_Tree@V?$_Tmap_traits@HW4mxClassID@@U?$less@H@std@@V?$allocator@U?$pair@$$CBHW4mxClassID@@@std@@@3@$0A@@std@@@std@@IEAA?AU?$pair@V?$_Tree_iterator@V?$_Tree_val@U?$_Tree_simple_types@U?$pair@$$CBHW4mxClassID@@@std@@@std@@@std@@@std@@_N@1@_NAEAU?$pair@$$CBHW4mxClassID@@@1@PEAU?$_Tree_node@U?$pair@$$CBHW4mxClassID@@@std@@PEAX@1@@Z 00000001800127e0     mex_opencv_2.4:MxArray.obj
 0002:000047f8       $unwind$?catch$0@?0???$_Insert_nohint@AEAU?$pair@$$CBW4mxClassID@@H@std@@PEAU?$_Tree_node@U?$pair@$$CBW4mxClassID@@H@std@@PEAX@2@@?$_Tree@V?$_Tmap_traits@W4mxClassID@@HU?$less@W4mxClassID@@@std@@V?$allocator@U?$pair@$$CBW4mxClassID@@H@std@@@3@$0A@@std@@@std@@IEAA?AU?$pair@V?$_Tree_iterator@V?$_Tree_val@U?$_Tree_simple_types@U?$pair@$$CBW4mxClassID@@H@std@@@std@@@std@@@std@@_N@1@_NAEAU?$pair@$$CBW4mxClassID@@H@1@PEAU?$_Tree_node@U?$pair@$$CBW4mxClassID@@H@std@@PEAX@1@@Z@4HA 00000001800127f8     mex_opencv_2.4:MxArray.obj
 0002:000047f8       $unwind$?catch$0@?0???$_Insert_nohint@AEAU?$pair@$$CBHW4mxClassID@@@std@@PEAU?$_Tree_node@U?$pair@$$CBHW4mxClassID@@@std@@PEAX@2@@?$_Tree@V?$_Tmap_traits@HW4mxClassID@@U?$less@H@std@@V?$allocator@U?$pair@$$CBHW4mxClassID@@@std@@@3@$0A@@std@@@std@@IEAA?AU?$pair@V?$_Tree_iterator@V?$_Tree_val@U?$_Tree_simple_types@U?$pair@$$CBHW4mxClassID@@@std@@@std@@@std@@@std@@_N@1@_NAEAU?$pair@$$CBHW4mxClassID@@@1@PEAU?$_Tree_node@U?$pair@$$CBHW4mxClassID@@@std@@PEAX@1@@Z@4HA 00000001800127f8     mex_opencv_2.4:MxArray.obj
 0002:00004808       $unwind$??$_Insert_nohint@AEAU?$pair@$$CBHV?$basic_string@DU?$char_traits@D@std@@V?$allocator@D@2@@std@@@std@@PEAU?$_Tree_node@U?$pair@$$CBHV?$basic_string@DU?$char_traits@D@std@@V?$allocator@D@2@@std@@@std@@PEAX@2@@?$_Tree@V?$_Tmap_traits@HV?$basic_string@DU?$char_traits@D@std@@V?$allocator@D@2@@std@@U?$less@H@2@V?$allocator@U?$pair@$$CBHV?$basic_string@DU?$char_traits@D@std@@V?$allocator@D@2@@std@@@std@@@2@$0A@@std@@@std@@IEAA?AU?$pair@V?$_Tree_iterator@V?$_Tree_val@U?$_Tree_simple_types@U?$pair@$$CBHV?$basic_string@DU?$char_traits@D@std@@V?$allocator@D@2@@std@@@std@@@std@@@std@@@std@@_N@1@_NAEAU?$pair@$$CBHV?$basic_string@DU?$char_traits@D@std@@V?$allocator@D@2@@std@@@1@PEAU?$_Tree_node@U?$pair@$$CBHV?$basic_string@DU?$char_traits@D@std@@V?$allocator@D@2@@std@@@std@@PEAX@1@@Z 0000000180012808     mex_opencv_2.4:MxArray.obj
 0002:00004820       $tryMap$??$_Insert_nohint@AEAU?$pair@$$CBHV?$basic_string@DU?$char_traits@D@std@@V?$allocator@D@2@@std@@@std@@PEAU?$_Tree_node@U?$pair@$$CBHV?$basic_string@DU?$char_traits@D@std@@V?$allocator@D@2@@std@@@std@@PEAX@2@@?$_Tree@V?$_Tmap_traits@HV?$basic_string@DU?$char_traits@D@std@@V?$allocator@D@2@@std@@U?$less@H@2@V?$allocator@U?$pair@$$CBHV?$basic_string@DU?$char_traits@D@std@@V?$allocator@D@2@@std@@@std@@@2@$0A@@std@@@std@@IEAA?AU?$pair@V?$_Tree_iterator@V?$_Tree_val@U?$_Tree_simple_types@U?$pair@$$CBHV?$basic_string@DU?$char_traits@D@std@@V?$allocator@D@2@@std@@@std@@@std@@@std@@@std@@_N@1@_NAEAU?$pair@$$CBHV?$basic_string@DU?$char_traits@D@std@@V?$allocator@D@2@@std@@@1@PEAU?$_Tree_node@U?$pair@$$CBHV?$basic_string@DU?$char_traits@D@std@@V?$allocator@D@2@@std@@@std@@PEAX@1@@Z 0000000180012820     mex_opencv_2.4:MxArray.obj
 0002:00004834       $handlerMap$0$??$_Insert_nohint@AEAU?$pair@$$CBHV?$basic_string@DU?$char_traits@D@std@@V?$allocator@D@2@@std@@@std@@PEAU?$_Tree_node@U?$pair@$$CBHV?$basic_string@DU?$char_traits@D@std@@V?$allocator@D@2@@std@@@std@@PEAX@2@@?$_Tree@V?$_Tmap_traits@HV?$basic_string@DU?$char_traits@D@std@@V?$allocator@D@2@@std@@U?$less@H@2@V?$allocator@U?$pair@$$CBHV?$basic_string@DU?$char_traits@D@std@@V?$allocator@D@2@@std@@@std@@@2@$0A@@std@@@std@@IEAA?AU?$pair@V?$_Tree_iterator@V?$_Tree_val@U?$_Tree_simple_types@U?$pair@$$CBHV?$basic_string@DU?$char_traits@D@std@@V?$allocator@D@2@@std@@@std@@@std@@@std@@@std@@_N@1@_NAEAU?$pair@$$CBHV?$basic_string@DU?$char_traits@D@std@@V?$allocator@D@2@@std@@@1@PEAU?$_Tree_node@U?$pair@$$CBHV?$basic_string@DU?$char_traits@D@std@@V?$allocator@D@2@@std@@@std@@PEAX@1@@Z 0000000180012834     mex_opencv_2.4:MxArray.obj
 0002:00004848       $ip2state$??$_Insert_nohint@AEAU?$pair@$$CBHV?$basic_string@DU?$char_traits@D@std@@V?$allocator@D@2@@std@@@std@@PEAU?$_Tree_node@U?$pair@$$CBHV?$basic_string@DU?$char_traits@D@std@@V?$allocator@D@2@@std@@@std@@PEAX@2@@?$_Tree@V?$_Tmap_traits@HV?$basic_string@DU?$char_traits@D@std@@V?$allocator@D@2@@std@@U?$less@H@2@V?$allocator@U?$pair@$$CBHV?$basic_string@DU?$char_traits@D@std@@V?$allocator@D@2@@std@@@std@@@2@$0A@@std@@@std@@IEAA?AU?$pair@V?$_Tree_iterator@V?$_Tree_val@U?$_Tree_simple_types@U?$pair@$$CBHV?$basic_string@DU?$char_traits@D@std@@V?$allocator@D@2@@std@@@std@@@std@@@std@@@std@@_N@1@_NAEAU?$pair@$$CBHV?$basic_string@DU?$char_traits@D@std@@V?$allocator@D@2@@std@@@1@PEAU?$_Tree_node@U?$pair@$$CBHV?$basic_string@DU?$char_traits@D@std@@V?$allocator@D@2@@std@@@std@@PEAX@1@@Z 0000000180012848     mex_opencv_2.4:MxArray.obj
 0002:00004860       $unwind$?catch$0@?0???$_Insert_nohint@AEAU?$pair@$$CBHV?$basic_string@DU?$char_traits@D@std@@V?$allocator@D@2@@std@@@std@@PEAU?$_Tree_node@U?$pair@$$CBHV?$basic_string@DU?$char_traits@D@std@@V?$allocator@D@2@@std@@@std@@PEAX@2@@?$_Tree@V?$_Tmap_traits@HV?$basic_string@DU?$char_traits@D@std@@V?$allocator@D@2@@std@@U?$less@H@2@V?$allocator@U?$pair@$$CBHV?$basic_string@DU?$char_traits@D@std@@V?$allocator@D@2@@std@@@std@@@2@$0A@@std@@@std@@IEAA?AU?$pair@V?$_Tree_iterator@V?$_Tree_val@U?$_Tree_simple_types@U?$pair@$$CBHV?$basic_string@DU?$char_traits@D@std@@V?$allocator@D@2@@std@@@std@@@std@@@std@@@std@@_N@1@_NAEAU?$pair@$$CBHV?$basic_string@DU?$char_traits@D@std@@V?$allocator@D@2@@std@@@1@PEAU?$_Tree_node@U?$pair@$$CBHV?$basic_string@DU?$char_traits@D@std@@V?$allocator@D@2@@std@@@std@@PEAX@1@@Z@4HA 0000000180012860     mex_opencv_2.4:MxArray.obj
 0002:00004870       $unwind$??$_Buynode@AEAU?$pair@$$CBV?$basic_string@DU?$char_traits@D@std@@V?$allocator@D@2@@std@@H@std@@@?$_Tree_buy@U?$pair@$$CBV?$basic_string@DU?$char_traits@D@std@@V?$allocator@D@2@@std@@H@std@@V?$allocator@U?$pair@$$CBV?$basic_string@DU?$char_traits@D@std@@V?$allocator@D@2@@std@@H@std@@@2@@std@@QEAAPEAU?$_Tree_node@U?$pair@$$CBV?$basic_string@DU?$char_traits@D@std@@V?$allocator@D@2@@std@@H@std@@PEAX@1@AEAU?$pair@$$CBV?$basic_string@DU?$char_traits@D@std@@V?$allocator@D@2@@std@@H@1@@Z 0000000180012870     mex_opencv_2.4:MxArray.obj
 0002:00004888       $stateUnwindMap$??$_Buynode@AEAU?$pair@$$CBV?$basic_string@DU?$char_traits@D@std@@V?$allocator@D@2@@std@@H@std@@@?$_Tree_buy@U?$pair@$$CBV?$basic_string@DU?$char_traits@D@std@@V?$allocator@D@2@@std@@H@std@@V?$allocator@U?$pair@$$CBV?$basic_string@DU?$char_traits@D@std@@V?$allocator@D@2@@std@@H@std@@@2@@std@@QEAAPEAU?$_Tree_node@U?$pair@$$CBV?$basic_string@DU?$char_traits@D@std@@V?$allocator@D@2@@std@@H@std@@PEAX@1@AEAU?$pair@$$CBV?$basic_string@DU?$char_traits@D@std@@V?$allocator@D@2@@std@@H@1@@Z 0000000180012888     mex_opencv_2.4:MxArray.obj
 0002:000048a0       $tryMap$??$_Buynode@AEAU?$pair@$$CBV?$basic_string@DU?$char_traits@D@std@@V?$allocator@D@2@@std@@H@std@@@?$_Tree_buy@U?$pair@$$CBV?$basic_string@DU?$char_traits@D@std@@V?$allocator@D@2@@std@@H@std@@V?$allocator@U?$pair@$$CBV?$basic_string@DU?$char_traits@D@std@@V?$allocator@D@2@@std@@H@std@@@2@@std@@QEAAPEAU?$_Tree_node@U?$pair@$$CBV?$basic_string@DU?$char_traits@D@std@@V?$allocator@D@2@@std@@H@std@@PEAX@1@AEAU?$pair@$$CBV?$basic_string@DU?$char_traits@D@std@@V?$allocator@D@2@@std@@H@1@@Z 00000001800128a0     mex_opencv_2.4:MxArray.obj
 0002:000048b4       $handlerMap$0$??$_Buynode@AEAU?$pair@$$CBV?$basic_string@DU?$char_traits@D@std@@V?$allocator@D@2@@std@@H@std@@@?$_Tree_buy@U?$pair@$$CBV?$basic_string@DU?$char_traits@D@std@@V?$allocator@D@2@@std@@H@std@@V?$allocator@U?$pair@$$CBV?$basic_string@DU?$char_traits@D@std@@V?$allocator@D@2@@std@@H@std@@@2@@std@@QEAAPEAU?$_Tree_node@U?$pair@$$CBV?$basic_string@DU?$char_traits@D@std@@V?$allocator@D@2@@std@@H@std@@PEAX@1@AEAU?$pair@$$CBV?$basic_string@DU?$char_traits@D@std@@V?$allocator@D@2@@std@@H@1@@Z 00000001800128b4     mex_opencv_2.4:MxArray.obj
 0002:000048c8       $ip2state$??$_Buynode@AEAU?$pair@$$CBV?$basic_string@DU?$char_traits@D@std@@V?$allocator@D@2@@std@@H@std@@@?$_Tree_buy@U?$pair@$$CBV?$basic_string@DU?$char_traits@D@std@@V?$allocator@D@2@@std@@H@std@@V?$allocator@U?$pair@$$CBV?$basic_string@DU?$char_traits@D@std@@V?$allocator@D@2@@std@@H@std@@@2@@std@@QEAAPEAU?$_Tree_node@U?$pair@$$CBV?$basic_string@DU?$char_traits@D@std@@V?$allocator@D@2@@std@@H@std@@PEAX@1@AEAU?$pair@$$CBV?$basic_string@DU?$char_traits@D@std@@V?$allocator@D@2@@std@@H@1@@Z 00000001800128c8     mex_opencv_2.4:MxArray.obj
 0002:000048f8       $unwind$?catch$0@?0???$_Buynode@AEAU?$pair@$$CBV?$basic_string@DU?$char_traits@D@std@@V?$allocator@D@2@@std@@H@std@@@?$_Tree_buy@U?$pair@$$CBV?$basic_string@DU?$char_traits@D@std@@V?$allocator@D@2@@std@@H@std@@V?$allocator@U?$pair@$$CBV?$basic_string@DU?$char_traits@D@std@@V?$allocator@D@2@@std@@H@std@@@2@@std@@QEAAPEAU?$_Tree_node@U?$pair@$$CBV?$basic_string@DU?$char_traits@D@std@@V?$allocator@D@2@@std@@H@std@@PEAX@1@AEAU?$pair@$$CBV?$basic_string@DU?$char_traits@D@std@@V?$allocator@D@2@@std@@H@1@@Z@4HA 00000001800128f8     mex_opencv_2.4:MxArray.obj
 0002:00004908       $unwind$??$_Buynode@AEAU?$pair@$$CBHV?$basic_string@DU?$char_traits@D@std@@V?$allocator@D@2@@std@@@std@@@?$_Tree_buy@U?$pair@$$CBHV?$basic_string@DU?$char_traits@D@std@@V?$allocator@D@2@@std@@@std@@V?$allocator@U?$pair@$$CBHV?$basic_string@DU?$char_traits@D@std@@V?$allocator@D@2@@std@@@std@@@2@@std@@QEAAPEAU?$_Tree_node@U?$pair@$$CBHV?$basic_string@DU?$char_traits@D@std@@V?$allocator@D@2@@std@@@std@@PEAX@1@AEAU?$pair@$$CBHV?$basic_string@DU?$char_traits@D@std@@V?$allocator@D@2@@std@@@1@@Z 0000000180012908     mex_opencv_2.4:MxArray.obj
 0002:0000491c       $stateUnwindMap$??$_Buynode@AEAU?$pair@$$CBHV?$basic_string@DU?$char_traits@D@std@@V?$allocator@D@2@@std@@@std@@@?$_Tree_buy@U?$pair@$$CBHV?$basic_string@DU?$char_traits@D@std@@V?$allocator@D@2@@std@@@std@@V?$allocator@U?$pair@$$CBHV?$basic_string@DU?$char_traits@D@std@@V?$allocator@D@2@@std@@@std@@@2@@std@@QEAAPEAU?$_Tree_node@U?$pair@$$CBHV?$basic_string@DU?$char_traits@D@std@@V?$allocator@D@2@@std@@@std@@PEAX@1@AEAU?$pair@$$CBHV?$basic_string@DU?$char_traits@D@std@@V?$allocator@D@2@@std@@@1@@Z 000000018001291c     mex_opencv_2.4:MxArray.obj
 0002:00004934       $tryMap$??$_Buynode@AEAU?$pair@$$CBHV?$basic_string@DU?$char_traits@D@std@@V?$allocator@D@2@@std@@@std@@@?$_Tree_buy@U?$pair@$$CBHV?$basic_string@DU?$char_traits@D@std@@V?$allocator@D@2@@std@@@std@@V?$allocator@U?$pair@$$CBHV?$basic_string@DU?$char_traits@D@std@@V?$allocator@D@2@@std@@@std@@@2@@std@@QEAAPEAU?$_Tree_node@U?$pair@$$CBHV?$basic_string@DU?$char_traits@D@std@@V?$allocator@D@2@@std@@@std@@PEAX@1@AEAU?$pair@$$CBHV?$basic_string@DU?$char_traits@D@std@@V?$allocator@D@2@@std@@@1@@Z 0000000180012934     mex_opencv_2.4:MxArray.obj
 0002:00004948       $handlerMap$0$??$_Buynode@AEAU?$pair@$$CBHV?$basic_string@DU?$char_traits@D@std@@V?$allocator@D@2@@std@@@std@@@?$_Tree_buy@U?$pair@$$CBHV?$basic_string@DU?$char_traits@D@std@@V?$allocator@D@2@@std@@@std@@V?$allocator@U?$pair@$$CBHV?$basic_string@DU?$char_traits@D@std@@V?$allocator@D@2@@std@@@std@@@2@@std@@QEAAPEAU?$_Tree_node@U?$pair@$$CBHV?$basic_string@DU?$char_traits@D@std@@V?$allocator@D@2@@std@@@std@@PEAX@1@AEAU?$pair@$$CBHV?$basic_string@DU?$char_traits@D@std@@V?$allocator@D@2@@std@@@1@@Z 0000000180012948     mex_opencv_2.4:MxArray.obj
 0002:00004960       $ip2state$??$_Buynode@AEAU?$pair@$$CBHV?$basic_string@DU?$char_traits@D@std@@V?$allocator@D@2@@std@@@std@@@?$_Tree_buy@U?$pair@$$CBHV?$basic_string@DU?$char_traits@D@std@@V?$allocator@D@2@@std@@@std@@V?$allocator@U?$pair@$$CBHV?$basic_string@DU?$char_traits@D@std@@V?$allocator@D@2@@std@@@std@@@2@@std@@QEAAPEAU?$_Tree_node@U?$pair@$$CBHV?$basic_string@DU?$char_traits@D@std@@V?$allocator@D@2@@std@@@std@@PEAX@1@AEAU?$pair@$$CBHV?$basic_string@DU?$char_traits@D@std@@V?$allocator@D@2@@std@@@1@@Z 0000000180012960     mex_opencv_2.4:MxArray.obj
 0002:00004990       $unwind$?catch$0@?0???$_Buynode@AEAU?$pair@$$CBHV?$basic_string@DU?$char_traits@D@std@@V?$allocator@D@2@@std@@@std@@@?$_Tree_buy@U?$pair@$$CBHV?$basic_string@DU?$char_traits@D@std@@V?$allocator@D@2@@std@@@std@@V?$allocator@U?$pair@$$CBHV?$basic_string@DU?$char_traits@D@std@@V?$allocator@D@2@@std@@@std@@@2@@std@@QEAAPEAU?$_Tree_node@U?$pair@$$CBHV?$basic_string@DU?$char_traits@D@std@@V?$allocator@D@2@@std@@@std@@PEAX@1@AEAU?$pair@$$CBHV?$basic_string@DU?$char_traits@D@std@@V?$allocator@D@2@@std@@@1@@Z@4HA 0000000180012990     mex_opencv_2.4:MxArray.obj
 0002:000049a0       $xdatasym                  00000001800129a0     MSVCRT:amdsecgs.obj
 0002:000049a4       $unwind$_onexit            00000001800129a4     MSVCRT:atonexit.obj
 0002:000049c4       $unwind$_CRT_INIT          00000001800129c4     MSVCRT:crtdll.obj
 0002:000049e0       $unwind$__DllMainCRTStartup 00000001800129e0     MSVCRT:crtdll.obj
 0002:00004a1c       $unwind$__report_gsfailure 0000000180012a1c     MSVCRT:gs_report.obj
 0002:00004a24       $unwind$??_M@YAXPEAX_KHP6AX0@Z@Z 0000000180012a24     MSVCRT:ehvecdtr.obj
 0002:00004a4c       $unwind$?__ArrayUnwind@@YAXPEAX_KHP6AX0@Z@Z 0000000180012a4c     MSVCRT:ehvecdtr.obj
 0002:00004a74       $unwind$_IsNonwritableInCurrentImage 0000000180012a74     MSVCRT:pesect.obj
 0002:00004a98       $unwind$__security_init_cookie 0000000180012a98     MSVCRT:gs_support.obj
 0002:00004aa4       $unwind$__GSHandlerCheck_EH 0000000180012aa4     MSVCRT:gshandlereh.obj
 0002:00004b50       .edata                     0000000180012b50     diversity.exp
 0002:00004b78       rgpv                       0000000180012b78     diversity.exp
 0002:00004b7c       rgszName                   0000000180012b7c     diversity.exp
 0002:00004b80       rgwOrd                     0000000180012b80     diversity.exp
 0002:00004b82       szName                     0000000180012b82     diversity.exp
 0002:00004b93       $N00001                    0000000180012b93     diversity.exp
 0002:0000503a       .idata$6                   000000018001303a     libmx:libmx.dll
 0002:00005078       .idata$6                   0000000180013078     libmex:libmex.dll
 0002:000057f2       .idata$6                   00000001800137f2     msvcprt:MSVCP120.dll
 0002:00005926       .idata$6                   0000000180013926     MSVCRT:MSVCR120.dll
 0002:00005b80       .idata$6                   0000000180013b80     kernel32:KERNEL32.dll
 0003:00000540       __proc_attached            0000000180014540     MSVCRT:crtdll.obj
 0003:00000550       GS_ExceptionRecord         0000000180014550     MSVCRT:gs_report.obj
 0003:000005f0       GS_ContextRecord           00000001800145f0     MSVCRT:gs_report.obj
 0003:00000ac0       DebuggerWasPresent         0000000180014ac0     MSVCRT:gs_report.obj
 0003:00000ae0       _Tuple_alloc               0000000180014ae0     diversity.obj
 0003:00000ae1       ignore                     0000000180014ae1     diversity.obj
 0003:00000ae2       allocator_arg              0000000180014ae2     diversity.obj
 0003:00000ae3       piecewise_construct        0000000180014ae3     diversity.obj
 0003:00000ae4       _Tuple_alloc               0000000180014ae4     main.obj
 0003:00000ae5       ignore                     0000000180014ae5     main.obj
 0003:00000ae6       allocator_arg              0000000180014ae6     main.obj
 0003:00000ae7       piecewise_construct        0000000180014ae7     main.obj
 0003:00000b00       _Tuple_alloc               0000000180014b00     deformableDiversity.obj
 0003:00000b01       ignore                     0000000180014b01     deformableDiversity.obj
 0003:00000b02       allocator_arg              0000000180014b02     deformableDiversity.obj
 0003:00000b03       piecewise_construct        0000000180014b03     deformableDiversity.obj
 0003:00000b04       allocator_arg              0000000180014b04     tictoc.obj
 0003:00000b05       piecewise_construct        0000000180014b05     tictoc.obj
 0003:00000b06       _Tuple_alloc               0000000180014b06     mex_opencv_2.4:MxArray.obj
 0003:00000b07       ignore                     0000000180014b07     mex_opencv_2.4:MxArray.obj
 0003:00000b08       InvTermCritType            0000000180014b08     mex_opencv_2.4:MxArray.obj
 0003:00000b18       allocator_arg              0000000180014b18     mex_opencv_2.4:MxArray.obj
 0003:00000b19       piecewise_construct        0000000180014b19     mex_opencv_2.4:MxArray.obj
 0003:00000b48       TermCritType               0000000180014b48     mex_opencv_2.4:MxArray.obj
 0003:00000b58       ClassIDOf                  0000000180014b58     mex_opencv_2.4:MxArray.obj
 0003:00000b68       DepthOf                    0000000180014b68     mex_opencv_2.4:MxArray.obj
 0004:00000000       $pdata$??__E?All@DiversityTypes@@2V?$vector@PEBDV?$allocator@PEBD@std@@@std@@A@@YAXXZ 0000000180015000     main.obj
 0004:0000000c       $pdata$??__Etictoc_stack@@YAXXZ 000000018001500c     tictoc.obj
 0004:00000018       $pdata$??__EDepthOf@?A0x6487b33d@@YAXXZ 0000000180015018     mex_opencv_2.4:MxArray.obj
 0004:00000024       $pdata$??__EClassIDOf@?A0x6487b33d@@YAXXZ 0000000180015024     mex_opencv_2.4:MxArray.obj
 0004:00000030       $pdata$??__EInvTermCritType@?A0x6487b33d@@YAXXZ 0000000180015030     mex_opencv_2.4:MxArray.obj
 0004:0000003c       $pdata$??__ETermCritType@?A0x6487b33d@@YAXXZ 000000018001503c     mex_opencv_2.4:MxArray.obj
 0004:00000048       $pdata$??_G_Generic_error_category@std@@UEAAPEAXI@Z 0000000180015048     diversity.obj
 0004:00000048       $pdata$??_Gerror_category@std@@UEAAPEAXI@Z 0000000180015048     diversity.obj
 0004:00000048       $pdata$??_G_Iostream_error_category@std@@UEAAPEAXI@Z 0000000180015048     diversity.obj
 0004:00000048       $pdata$??_G_System_error_category@std@@UEAAPEAXI@Z 0000000180015048     diversity.obj
 0004:00000054       $pdata$?equivalent@error_category@std@@UEBA_NHAEBVerror_condition@2@@Z 0000000180015054     diversity.obj
 0004:00000060       $pdata$?message@_Generic_error_category@std@@UEBA?AV?$basic_string@DU?$char_traits@D@std@@V?$allocator@D@2@@2@H@Z 0000000180015060     diversity.obj
 0004:0000006c       $pdata$?message@_Iostream_error_category@std@@UEBA?AV?$basic_string@DU?$char_traits@D@std@@V?$allocator@D@2@@2@H@Z 000000018001506c     diversity.obj
 0004:00000078       $pdata$?message@_System_error_category@std@@UEBA?AV?$basic_string@DU?$char_traits@D@std@@V?$allocator@D@2@@2@H@Z 0000000180015078     diversity.obj
 0004:00000084       $pdata$?default_error_condition@_System_error_category@std@@UEBA?AVerror_condition@2@H@Z 0000000180015084     diversity.obj
 0004:00000090       $pdata$??0WeightedCountArray@dis@@QEAA@V?$vector@MV?$allocator@M@std@@@std@@@Z 0000000180015090     diversity.obj
 0004:0000009c       $pdata$??_GMxArray@@UEAAPEAXI@Z 000000018001509c     diversity.obj
 0004:000000a8       $pdata$?CalcDiversityMap@@YAXV?$Mat@H@dis@@HHV?$vector@MV?$allocator@M@std@@@std@@AEAV?$Mat@M@2@@Z 00000001800150a8     diversity.obj
 0004:000000b4       $pdata$?BuildWeightVector@@YA?AV?$vector@MV?$allocator@M@std@@@std@@V?$Mat@H@dis@@HH@Z 00000001800150b4     diversity.obj
 0004:000000c0       $pdata$?DiversityCount@dis@@YAXPEAPEAUmxArray_tag@@HPEAPEBU2@@Z 00000001800150c0     diversity.obj
 0004:000000cc       $pdata$?WeightedDiversityCount@dis@@YAXPEAPEAUmxArray_tag@@HPEAPEBU2@@Z 00000001800150cc     diversity.obj
 0004:000000d8       $pdata$??1?$basic_string@DU?$char_traits@D@std@@V?$allocator@D@2@@std@@QEAA@XZ 00000001800150d8     diversity.obj
 0004:000000e4       $pdata$??1?$vector@MV?$allocator@M@std@@@std@@QEAA@XZ 00000001800150e4     diversity.obj
 0004:000000e4       $pdata$??1?$vector@HV?$allocator@H@std@@@std@@QEAA@XZ 00000001800150e4     diversity.obj
 0004:000000e4       $pdata$??1CountArray@dis@@QEAA@XZ 00000001800150e4     deformableDiversity.obj
 0004:000000e4       $pdata$??1?$vector@PEBDV?$allocator@PEBD@std@@@std@@QEAA@XZ 00000001800150e4     main.obj
 0004:000000e4       $pdata$??1?$vector@NV?$allocator@N@std@@@std@@QEAA@XZ 00000001800150e4     deformableDiversity.obj
 0004:000000e4       $pdata$??1?$vector@UddisScanParams@@V?$allocator@UddisScanParams@@@std@@@std@@QEAA@XZ 00000001800150e4     deformableDiversity.obj
 0004:000000f0       $pdata$??0?$vector@MV?$allocator@M@std@@@std@@QEAA@AEBV01@@Z 00000001800150f0     diversity.obj
 0004:000000f0       $pdata$??0?$vector@HV?$allocator@H@std@@@std@@QEAA@AEBV01@@Z 00000001800150f0     deformableDiversity.obj
 0004:000000fc       $pdata$?assign@?$basic_string@DU?$char_traits@D@std@@V?$allocator@D@2@@std@@QEAAAEAV12@AEBV12@_K1@Z 00000001800150fc     diversity.obj
 0004:00000108       $pdata$?_Construct_n@?$vector@HV?$allocator@H@std@@@std@@QEAAX_KPEBH@Z 0000000180015108     diversity.obj
 0004:00000114       $pdata$?_Construct_n@?$vector@MV?$allocator@M@std@@@std@@QEAAX_KPEBM@Z 0000000180015114     diversity.obj
 0004:00000120       $pdata$?_Buy@?$vector@MV?$allocator@M@std@@@std@@IEAA_N_K@Z 0000000180015120     diversity.obj
 0004:00000120       $pdata$?_Buy@?$vector@HV?$allocator@H@std@@@std@@IEAA_N_K@Z 0000000180015120     diversity.obj
 0004:0000012c       $pdata$0$?_Buy@?$vector@MV?$allocator@M@std@@@std@@IEAA_N_K@Z 000000018001512c     diversity.obj
 0004:0000012c       $pdata$0$?_Buy@?$vector@HV?$allocator@H@std@@@std@@IEAA_N_K@Z 000000018001512c     diversity.obj
 0004:00000138       $pdata$1$?_Buy@?$vector@HV?$allocator@H@std@@@std@@IEAA_N_K@Z 0000000180015138     diversity.obj
 0004:00000138       $pdata$1$?_Buy@?$vector@MV?$allocator@M@std@@@std@@IEAA_N_K@Z 0000000180015138     diversity.obj
 0004:00000144       $pdata$2$?_Buy@?$vector@MV?$allocator@M@std@@@std@@IEAA_N_K@Z 0000000180015144     diversity.obj
 0004:00000144       $pdata$2$?_Buy@?$vector@HV?$allocator@H@std@@@std@@IEAA_N_K@Z 0000000180015144     diversity.obj
 0004:00000150       $pdata$?assign@?$basic_string@DU?$char_traits@D@std@@V?$allocator@D@2@@std@@QEAAAEAV12@PEBD_K@Z 0000000180015150     diversity.obj
 0004:0000015c       $pdata$?erase@?$basic_string@DU?$char_traits@D@std@@V?$allocator@D@2@@std@@QEAAAEAV12@_K0@Z 000000018001515c     diversity.obj
 0004:00000168       $pdata$?_Grow@?$basic_string@DU?$char_traits@D@std@@V?$allocator@D@2@@std@@QEAA_N_K_N@Z 0000000180015168     diversity.obj
 0004:00000174       $pdata$1$?_Grow@?$basic_string@DU?$char_traits@D@std@@V?$allocator@D@2@@std@@QEAA_N_K_N@Z 0000000180015174     diversity.obj
 0004:00000180       $pdata$2$?_Grow@?$basic_string@DU?$char_traits@D@std@@V?$allocator@D@2@@std@@QEAA_N_K_N@Z 0000000180015180     diversity.obj
 0004:0000018c       $pdata$3$?_Grow@?$basic_string@DU?$char_traits@D@std@@V?$allocator@D@2@@std@@QEAA_N_K_N@Z 000000018001518c     diversity.obj
 0004:00000198       $pdata$4$?_Grow@?$basic_string@DU?$char_traits@D@std@@V?$allocator@D@2@@std@@QEAA_N_K_N@Z 0000000180015198     diversity.obj
 0004:000001a4       $pdata$?_Copy@?$basic_string@DU?$char_traits@D@std@@V?$allocator@D@2@@std@@QEAAX_K0@Z 00000001800151a4     diversity.obj
 0004:000001b0       $pdata$??$toVector@M@MxArray@@QEBA?AV?$vector@MV?$allocator@M@std@@@std@@XZ 00000001800151b0     diversity.obj
 0004:000001bc       $pdata$??0?$vector@MV?$allocator@M@std@@@std@@QEAA@_K@Z 00000001800151bc     diversity.obj
 0004:000001c8       $pdata$0$??0?$vector@MV?$allocator@M@std@@@std@@QEAA@_K@Z 00000001800151c8     diversity.obj
 0004:000001d4       $pdata$1$??0?$vector@MV?$allocator@M@std@@@std@@QEAA@_K@Z 00000001800151d4     diversity.obj
 0004:000001e0       $pdata$??$at@M@MxArray@@QEBAM_K@Z 00000001800151e0     diversity.obj
 0004:000001ec       $pdata$?excapsulate@@YA?AV?$basic_string@DU?$char_traits@D@std@@V?$allocator@D@2@@std@@V12@0@Z 00000001800151ec     main.obj
 0004:000001f8       $pdata$?BuildInputErrMessage@@YA?AV?$basic_string@DU?$char_traits@D@std@@V?$allocator@D@2@@std@@XZ 00000001800151f8     main.obj
 0004:00000204       $pdata$??_D?$basic_ostringstream@DU?$char_traits@D@std@@V?$allocator@D@2@@std@@QEAAXXZ 0000000180015204     main.obj
 0004:00000210       $pdata$mexFunction         0000000180015210     main.obj
 0004:0000021c       $pdata$??0?$basic_string@DU?$char_traits@D@std@@V?$allocator@D@2@@std@@QEAA@$$QEAV01@@Z 000000018001521c     main.obj
 0004:00000228       $pdata$??0?$vector@PEBDV?$allocator@PEBD@std@@@std@@QEAA@AEBV01@@Z 0000000180015228     main.obj
 0004:00000234       $pdata$??0?$basic_ostringstream@DU?$char_traits@D@std@@V?$allocator@D@2@@std@@QEAA@H@Z 0000000180015234     main.obj
 0004:00000240       $pdata$??1?$basic_ostringstream@DU?$char_traits@D@std@@V?$allocator@D@2@@std@@UEAA@XZ 0000000180015240     main.obj
 0004:0000024c       $pdata$?str@?$basic_ostringstream@DU?$char_traits@D@std@@V?$allocator@D@2@@std@@QEBA?AV?$basic_string@DU?$char_traits@D@std@@V?$allocator@D@2@@2@XZ 000000018001524c     main.obj
 0004:00000258       $pdata$?overflow@?$basic_stringbuf@DU?$char_traits@D@std@@V?$allocator@D@2@@std@@MEAAHH@Z 0000000180015258     main.obj
 0004:00000264       $pdata$0$?overflow@?$basic_stringbuf@DU?$char_traits@D@std@@V?$allocator@D@2@@std@@MEAAHH@Z 0000000180015264     main.obj
 0004:00000270       $pdata$5$?overflow@?$basic_stringbuf@DU?$char_traits@D@std@@V?$allocator@D@2@@std@@MEAAHH@Z 0000000180015270     main.obj
 0004:0000027c       $pdata$?seekoff@?$basic_stringbuf@DU?$char_traits@D@std@@V?$allocator@D@2@@std@@MEAA?AV?$fpos@H@2@_JHH@Z 000000018001527c     main.obj
 0004:00000288       $pdata$?seekpos@?$basic_stringbuf@DU?$char_traits@D@std@@V?$allocator@D@2@@std@@MEAA?AV?$fpos@H@2@V32@H@Z 0000000180015288     main.obj
 0004:00000294       $pdata$0$?seekpos@?$basic_stringbuf@DU?$char_traits@D@std@@V?$allocator@D@2@@std@@MEAA?AV?$fpos@H@2@V32@H@Z 0000000180015294     main.obj
 0004:000002a0       $pdata$1$?seekpos@?$basic_stringbuf@DU?$char_traits@D@std@@V?$allocator@D@2@@std@@MEAA?AV?$fpos@H@2@V32@H@Z 00000001800152a0     main.obj
 0004:000002ac       $pdata$??_G?$basic_ostringstream@DU?$char_traits@D@std@@V?$allocator@D@2@@std@@UEAAPEAXI@Z 00000001800152ac     main.obj
 0004:000002b8       $pdata$??_G?$basic_stringbuf@DU?$char_traits@D@std@@V?$allocator@D@2@@std@@UEAAPEAXI@Z 00000001800152b8     main.obj
 0004:000002c4       $pdata$?_Assign_rv@?$basic_string@DU?$char_traits@D@std@@V?$allocator@D@2@@std@@QEAAX$$QEAV12@@Z 00000001800152c4     main.obj
 0004:000002d0       $pdata$?append@?$basic_string@DU?$char_traits@D@std@@V?$allocator@D@2@@std@@QEAAAEAV12@AEBV12@_K1@Z 00000001800152d0     main.obj
 0004:000002dc       $pdata$?append@?$basic_string@DU?$char_traits@D@std@@V?$allocator@D@2@@std@@QEAAAEAV12@PEBD_K@Z 00000001800152dc     main.obj
 0004:000002e8       $pdata$?str@?$basic_stringbuf@DU?$char_traits@D@std@@V?$allocator@D@2@@std@@QEBA?AV?$basic_string@DU?$char_traits@D@std@@V?$allocator@D@2@@2@XZ 00000001800152e8     main.obj
 0004:000002f4       $pdata$??1sentry@?$basic_ostream@DU?$char_traits@D@std@@@std@@QEAA@XZ 00000001800152f4     main.obj
 0004:00000300       $pdata$??$?HDU?$char_traits@D@std@@V?$allocator@D@1@@std@@YA?AV?$basic_string@DU?$char_traits@D@std@@V?$allocator@D@2@@0@AEBV10@0@Z 0000000180015300     main.obj
 0004:0000030c       $pdata$??$?HDU?$char_traits@D@std@@V?$allocator@D@1@@std@@YA?AV?$basic_string@DU?$char_traits@D@std@@V?$allocator@D@2@@0@$$QEAV10@AEBV10@@Z 000000018001530c     main.obj
 0004:00000318       $pdata$??$?6U?$char_traits@D@std@@@std@@YAAEAV?$basic_ostream@DU?$char_traits@D@std@@@0@AEAV10@PEBD@Z 0000000180015318     main.obj
 0004:00000324       $pdata$??$?6DU?$char_traits@D@std@@V?$allocator@D@1@@std@@YAAEAV?$basic_ostream@DU?$char_traits@D@std@@@0@AEAV10@AEBV?$basic_string@DU?$char_traits@D@std@@V?$allocator@D@2@@0@@Z 0000000180015324     main.obj
 0004:00000330       $pdata$??$?HDU?$char_traits@D@std@@V?$allocator@D@1@@std@@YA?AV?$basic_string@DU?$char_traits@D@std@@V?$allocator@D@2@@0@$$QEAV10@0@Z 0000000180015330     main.obj
 0004:0000033c       $pdata$??$stringJoin@PEBD@@YA?AV?$basic_string@DU?$char_traits@D@std@@V?$allocator@D@2@@std@@V01@V?$vector@PEBDV?$allocator@PEBD@std@@@1@@Z 000000018001533c     main.obj
 0004:00000348       $pdata$??$?6U?$char_traits@D@std@@@std@@YAAEAV?$basic_ostream@DU?$char_traits@D@std@@@0@AEAV10@D@Z 0000000180015348     main.obj
 0004:00000354       $pdata$?insert@?$basic_string@DU?$char_traits@D@std@@V?$allocator@D@2@@std@@QEAAAEAV12@_KAEBV12@00@Z 0000000180015354     main.obj
 0004:00000360       $pdata$0$?insert@?$basic_string@DU?$char_traits@D@std@@V?$allocator@D@2@@std@@QEAAAEAV12@_KAEBV12@00@Z 0000000180015360     main.obj
 0004:0000036c       $pdata$1$?insert@?$basic_string@DU?$char_traits@D@std@@V?$allocator@D@2@@std@@QEAAAEAV12@_KAEBV12@00@Z 000000018001536c     main.obj
 0004:00000378       $pdata$??$_Insert@PEBQEBD@?$vector@PEBDV?$allocator@PEBD@std@@@std@@QEAAXV?$_Vector_const_iterator@V?$_Vector_val@U?$_Simple_types@PEBD@std@@@std@@@1@PEBQEBD1Uforward_iterator_tag@1@@Z 0000000180015378     main.obj
 0004:00000384       $pdata$1$??$_Insert@PEBQEBD@?$vector@PEBDV?$allocator@PEBD@std@@@std@@QEAAXV?$_Vector_const_iterator@V?$_Vector_val@U?$_Simple_types@PEBD@std@@@std@@@1@PEBQEBD1Uforward_iterator_tag@1@@Z 0000000180015384     main.obj
 0004:00000390       $pdata$2$??$_Insert@PEBQEBD@?$vector@PEBDV?$allocator@PEBD@std@@@std@@QEAAXV?$_Vector_const_iterator@V?$_Vector_val@U?$_Simple_types@PEBD@std@@@std@@@1@PEBQEBD1Uforward_iterator_tag@1@@Z 0000000180015390     main.obj
 0004:0000039c       $pdata$3$??$_Insert@PEBQEBD@?$vector@PEBDV?$allocator@PEBD@std@@@std@@QEAAXV?$_Vector_const_iterator@V?$_Vector_val@U?$_Simple_types@PEBD@std@@@std@@@1@PEBQEBD1Uforward_iterator_tag@1@@Z 000000018001539c     main.obj
 0004:000003a8       $pdata$4$??$_Insert@PEBQEBD@?$vector@PEBDV?$allocator@PEBD@std@@@std@@QEAAXV?$_Vector_const_iterator@V?$_Vector_val@U?$_Simple_types@PEBD@std@@@std@@@1@PEBQEBD1Uforward_iterator_tag@1@@Z 00000001800153a8     main.obj
 0004:000003b4       $pdata$??$_Rotate@PEAPEBD_JPEBD@std@@YAXPEAPEBD00PEA_J0@Z 00000001800153b4     main.obj
 0004:000003c0       $pdata$0$??$_Rotate@PEAPEBD_JPEBD@std@@YAXPEAPEBD00PEA_J0@Z 00000001800153c0     main.obj
 0004:000003cc       $pdata$1$??$_Rotate@PEAPEBD_JPEBD@std@@YAXPEAPEBD00PEA_J0@Z 00000001800153cc     main.obj
 0004:000003d8       $pdata$??_Gbad_alloc@std@@UEAAPEAXI@Z 00000001800153d8     deformableDiversity.obj
 0004:000003e4       $pdata$?throw_std_bad_alloc@internal@Eigen@@YAXXZ 00000001800153e4     deformableDiversity.obj
 0004:000003f0       $pdata$??0bad_alloc@std@@QEAA@AEBV01@@Z 00000001800153f0     deformableDiversity.obj
 0004:000003fc       $pdata$??0CountArray@dis@@QEAA@H@Z 00000001800153fc     deformableDiversity.obj
 0004:00000408       $pdata$??0DeformableDiversityWeightArray@dis@@QEAA@HN@Z 0000000180015408     deformableDiversity.obj
 0004:00000414       $pdata$??1thread@std@@QEAA@XZ 0000000180015414     deformableDiversity.obj
 0004:00000420       $pdata$?calculateOneWindowScore@@YANAEAV?$Window@H@dis@@AEBV?$Map@V?$Matrix@H$0?0$0?0$0A@$0?0$0?0@Eigen@@$0A@V?$Stride@$0A@$0A@@2@@Eigen@@VDeformableDiversityWeightArray@2@@Z 0000000180015420     deformableDiversity.obj
 0004:0000042c       $pdata$??1DeformableDiversityWeightArray@dis@@QEAA@XZ 000000018001542c     deformableDiversity.obj
 0004:00000438       $pdata$?CalcDDISRasterScan@@YAXV?$Mat@H@dis@@HHAEBV?$Map@V?$Matrix@H$0?0$0?0$0A@$0?0$0?0@Eigen@@$0A@V?$Stride@$0A@$0A@@2@@Eigen@@NAEAV?$Mat@M@2@HHPEAH@Z 0000000180015438     deformableDiversity.obj
 0004:00000444       $pdata$?CalcDDISRasterScan_ThreadFunc@@YAXUddisScanParams@@@Z 0000000180015444     deformableDiversity.obj
 0004:00000450       $pdata$?LoadXyPositions@@YA?AV?$Map@V?$Matrix@H$0?0$0?0$0A@$0?0$0?0@Eigen@@$0A@V?$Stride@$0A@$0A@@2@@Eigen@@PEAPEBUmxArray_tag@@@Z 0000000180015450     deformableDiversity.obj
 0004:0000045c       $pdata$?DeformableDiversity@dis@@YAXPEAPEAUmxArray_tag@@HPEAPEBU2@I@Z 000000018001545c     deformableDiversity.obj
 0004:00000468       $pdata$??0?$vector@NV?$allocator@N@std@@@std@@QEAA@AEBV01@@Z 0000000180015468     deformableDiversity.obj
 0004:00000474       $pdata$??0?$vector@UddisScanParams@@V?$allocator@UddisScanParams@@@std@@@std@@QEAA@_K@Z 0000000180015474     deformableDiversity.obj
 0004:00000480       $pdata$??0?$vector@Vthread@std@@V?$allocator@Vthread@std@@@2@@std@@QEAA@_K@Z 0000000180015480     deformableDiversity.obj
 0004:0000048c       $pdata$??1?$vector@Vthread@std@@V?$allocator@Vthread@std@@@2@@std@@QEAA@XZ 000000018001548c     deformableDiversity.obj
 0004:00000498       $pdata$?_Construct_n@?$vector@NV?$allocator@N@std@@@std@@QEAAX_KPEBN@Z 0000000180015498     deformableDiversity.obj
 0004:000004a4       $pdata$?_Buy@?$vector@NV?$allocator@N@std@@@std@@IEAA_N_K@Z 00000001800154a4     deformableDiversity.obj
 0004:000004b0       $pdata$0$?_Buy@?$vector@NV?$allocator@N@std@@@std@@IEAA_N_K@Z 00000001800154b0     deformableDiversity.obj
 0004:000004bc       $pdata$1$?_Buy@?$vector@NV?$allocator@N@std@@@std@@IEAA_N_K@Z 00000001800154bc     deformableDiversity.obj
 0004:000004c8       $pdata$2$?_Buy@?$vector@NV?$allocator@N@std@@@std@@IEAA_N_K@Z 00000001800154c8     deformableDiversity.obj
 0004:000004d4       $pdata$?run@?$inplace_transpose_selector@V?$Map@V?$Matrix@H$0?0$0?0$0A@$0?0$0?0@Eigen@@$0A@V?$Stride@$0A@$0A@@2@@Eigen@@$0A@@internal@Eigen@@SAXAEAV?$Map@V?$Matrix@H$0?0$0?0$0A@$0?0$0?0@Eigen@@$0A@V?$Stride@$0A@$0A@@2@@3@@Z 00000001800154d4     deformableDiversity.obj
 0004:000004e0       $pdata$?eval@?$DenseBase@V?$Transpose@V?$Map@V?$Matrix@H$0?0$0?0$0A@$0?0$0?0@Eigen@@$0A@V?$Stride@$0A@$0A@@2@@Eigen@@@Eigen@@@Eigen@@QEBA?BV?$Matrix@H$0?0$0?0$00$0?0$0?0@2@XZ 00000001800154e0     deformableDiversity.obj
 0004:000004ec       $pdata$?_Go@?$_LaunchPad@V?$_Bind@$00XQ6AXUddisScanParams@@@ZV?$reference_wrapper@UddisScanParams@@@std@@@std@@@std@@UEAAIXZ 00000001800154ec     deformableDiversity.obj
 0004:000004f8       $pdata$??$conditional_aligned_new_auto@H$00@internal@Eigen@@YAPEAH_K@Z 00000001800154f8     deformableDiversity.obj
 0004:00000504       $pdata$0$??$conditional_aligned_new_auto@H$00@internal@Eigen@@YAPEAH_K@Z 0000000180015504     deformableDiversity.obj
 0004:00000510       $pdata$1$??$conditional_aligned_new_auto@H$00@internal@Eigen@@YAPEAH_K@Z 0000000180015510     deformableDiversity.obj
 0004:0000051c       $pdata$2$??$conditional_aligned_new_auto@H$00@internal@Eigen@@YAPEAH_K@Z 000000018001551c     deformableDiversity.obj
 0004:00000528       $pdata$?run@?$triangular_assignment_selector@V?$SwapWrapper@V?$Map@V?$Matrix@H$0?0$0?0$0A@$0?0$0?0@Eigen@@$0A@V?$Stride@$0A@$0A@@2@@Eigen@@@Eigen@@V?$Transpose@V?$Map@V?$Matrix@H$0?0$0?0$0A@$0?0$0?0@Eigen@@$0A@V?$Stride@$0A@$0A@@2@@Eigen@@@2@$09$0?0$0A@@internal@Eigen@@SAXAEAV?$SwapWrapper@V?$Map@V?$Matrix@H$0?0$0?0$0A@$0?0$0?0@Eigen@@$0A@V?$Stride@$0A@$0A@@2@@Eigen@@@3@AEBV?$Transpose@V?$Map@V?$Matrix@H$0?0$0?0$0A@$0?0$0?0@Eigen@@$0A@V?$Stride@$0A@$0A@@2@@Eigen@@@3@@Z 0000000180015528     deformableDiversity.obj
 0004:00000534       $pdata$0$?run@?$triangular_assignment_selector@V?$SwapWrapper@V?$Map@V?$Matrix@H$0?0$0?0$0A@$0?0$0?0@Eigen@@$0A@V?$Stride@$0A@$0A@@2@@Eigen@@@Eigen@@V?$Transpose@V?$Map@V?$Matrix@H$0?0$0?0$0A@$0?0$0?0@Eigen@@$0A@V?$Stride@$0A@$0A@@2@@Eigen@@@2@$09$0?0$0A@@internal@Eigen@@SAXAEAV?$SwapWrapper@V?$Map@V?$Matrix@H$0?0$0?0$0A@$0?0$0?0@Eigen@@$0A@V?$Stride@$0A@$0A@@2@@Eigen@@@3@AEBV?$Transpose@V?$Map@V?$Matrix@H$0?0$0?0$0A@$0?0$0?0@Eigen@@$0A@V?$Stride@$0A@$0A@@2@@Eigen@@@3@@Z 0000000180015534     deformableDiversity.obj
 0004:00000540       $pdata$1$?run@?$triangular_assignment_selector@V?$SwapWrapper@V?$Map@V?$Matrix@H$0?0$0?0$0A@$0?0$0?0@Eigen@@$0A@V?$Stride@$0A@$0A@@2@@Eigen@@@Eigen@@V?$Transpose@V?$Map@V?$Matrix@H$0?0$0?0$0A@$0?0$0?0@Eigen@@$0A@V?$Stride@$0A@$0A@@2@@Eigen@@@2@$09$0?0$0A@@internal@Eigen@@SAXAEAV?$SwapWrapper@V?$Map@V?$Matrix@H$0?0$0?0$0A@$0?0$0?0@Eigen@@$0A@V?$Stride@$0A@$0A@@2@@Eigen@@@3@AEBV?$Transpose@V?$Map@V?$Matrix@H$0?0$0?0$0A@$0?0$0?0@Eigen@@$0A@V?$Stride@$0A@$0A@@2@@Eigen@@@3@@Z 0000000180015540     deformableDiversity.obj
 0004:0000054c       $pdata$?push_back@?$deque@JV?$allocator@J@std@@@std@@QEAAX$$QEAJ@Z 000000018001554c     tictoc.obj
 0004:00000558       $pdata$?_Tidy@?$deque@JV?$allocator@J@std@@@std@@IEAAXXZ 0000000180015558     tictoc.obj
 0004:00000564       $pdata$?_Growmap@?$deque@JV?$allocator@J@std@@@std@@IEAAX_K@Z 0000000180015564     tictoc.obj
 0004:00000570       $pdata$1$?_Growmap@?$deque@JV?$allocator@J@std@@@std@@IEAAX_K@Z 0000000180015570     tictoc.obj
 0004:0000057c       $pdata$2$?_Growmap@?$deque@JV?$allocator@J@std@@@std@@IEAAX_K@Z 000000018001557c     tictoc.obj
 0004:00000588       $pdata$3$?_Growmap@?$deque@JV?$allocator@J@std@@@std@@IEAAX_K@Z 0000000180015588     tictoc.obj
 0004:00000594       $pdata$4$?_Growmap@?$deque@JV?$allocator@J@std@@@std@@IEAAX_K@Z 0000000180015594     tictoc.obj
 0004:000005a0       $pdata$5$?_Growmap@?$deque@JV?$allocator@J@std@@@std@@IEAAX_K@Z 00000001800155a0     tictoc.obj
 0004:000005ac       $pdata$6$?_Growmap@?$deque@JV?$allocator@J@std@@@std@@IEAAX_K@Z 00000001800155ac     tictoc.obj
 0004:000005b8       $pdata$7$?_Growmap@?$deque@JV?$allocator@J@std@@@std@@IEAAX_K@Z 00000001800155b8     tictoc.obj
 0004:000005c4       $pdata$8$?_Growmap@?$deque@JV?$allocator@J@std@@@std@@IEAAX_K@Z 00000001800155c4     tictoc.obj
 0004:000005d0       $pdata$??1?$map@W4mxClassID@@HU?$less@W4mxClassID@@@std@@V?$allocator@U?$pair@$$CBW4mxClassID@@H@std@@@3@@std@@QEAA@XZ 00000001800155d0     mex_opencv_2.4:MxArray.obj
 0004:000005d0       $pdata$??1?$map@HW4mxClassID@@U?$less@H@std@@V?$allocator@U?$pair@$$CBHW4mxClassID@@@std@@@3@@std@@QEAA@XZ 00000001800155d0     mex_opencv_2.4:MxArray.obj
 0004:000005d0       $pdata$??1?$ConstMap@HW4mxClassID@@@@QEAA@XZ 00000001800155d0     mex_opencv_2.4:MxArray.obj
 0004:000005d0       $pdata$??1?$ConstMap@W4mxClassID@@H@@QEAA@XZ 00000001800155d0     mex_opencv_2.4:MxArray.obj
 0004:000005dc       $pdata$??1?$map@HV?$basic_string@DU?$char_traits@D@std@@V?$allocator@D@2@@std@@U?$less@H@2@V?$allocator@U?$pair@$$CBHV?$basic_string@DU?$char_traits@D@std@@V?$allocator@D@2@@std@@@std@@@2@@std@@QEAA@XZ 00000001800155dc     mex_opencv_2.4:MxArray.obj
 0004:000005dc       $pdata$??1?$ConstMap@HV?$basic_string@DU?$char_traits@D@std@@V?$allocator@D@2@@std@@@@QEAA@XZ 00000001800155dc     mex_opencv_2.4:MxArray.obj
 0004:000005e8       $pdata$??1?$map@V?$basic_string@DU?$char_traits@D@std@@V?$allocator@D@2@@std@@HU?$less@V?$basic_string@DU?$char_traits@D@std@@V?$allocator@D@2@@std@@@2@V?$allocator@U?$pair@$$CBV?$basic_string@DU?$char_traits@D@std@@V?$allocator@D@2@@std@@H@std@@@2@@std@@QEAA@XZ 00000001800155e8     mex_opencv_2.4:MxArray.obj
 0004:000005e8       $pdata$??1?$ConstMap@V?$basic_string@DU?$char_traits@D@std@@V?$allocator@D@2@@std@@H@@QEAA@XZ 00000001800155e8     mex_opencv_2.4:MxArray.obj
 0004:000005f4       $pdata$?toString@MxArray@@QEBA?AV?$basic_string@DU?$char_traits@D@std@@V?$allocator@D@2@@std@@XZ 00000001800155f4     mex_opencv_2.4:MxArray.obj
 0004:00000600       $pdata$?compare@?$basic_string@DU?$char_traits@D@std@@V?$allocator@D@2@@std@@QEBAHAEBV12@@Z 0000000180015600     mex_opencv_2.4:MxArray.obj
 0004:0000060c       $pdata$??0?$_Tree@V?$_Tmap_traits@V?$basic_string@DU?$char_traits@D@std@@V?$allocator@D@2@@std@@HU?$less@V?$basic_string@DU?$char_traits@D@std@@V?$allocator@D@2@@std@@@2@V?$allocator@U?$pair@$$CBV?$basic_string@DU?$char_traits@D@std@@V?$allocator@D@2@@std@@H@std@@@2@$0A@@std@@@std@@QEAA@AEBV01@AEBV?$allocator@U?$pair@$$CBV?$basic_string@DU?$char_traits@D@std@@V?$allocator@D@2@@std@@H@std@@@1@@Z 000000018001560c     mex_opencv_2.4:MxArray.obj
 0004:00000618       $pdata$??0?$_Tree@V?$_Tmap_traits@W4mxClassID@@HU?$less@W4mxClassID@@@std@@V?$allocator@U?$pair@$$CBW4mxClassID@@H@std@@@3@$0A@@std@@@std@@QEAA@AEBV01@AEBV?$allocator@U?$pair@$$CBW4mxClassID@@H@std@@@1@@Z 0000000180015618     mex_opencv_2.4:MxArray.obj
 0004:00000624       $pdata$??0?$_Tree@V?$_Tmap_traits@HW4mxClassID@@U?$less@H@std@@V?$allocator@U?$pair@$$CBHW4mxClassID@@@std@@@3@$0A@@std@@@std@@QEAA@AEBV01@AEBV?$allocator@U?$pair@$$CBHW4mxClassID@@@std@@@1@@Z 0000000180015624     mex_opencv_2.4:MxArray.obj
 0004:00000630       $pdata$??0?$_Tree@V?$_Tmap_traits@HV?$basic_string@DU?$char_traits@D@std@@V?$allocator@D@2@@std@@U?$less@H@2@V?$allocator@U?$pair@$$CBHV?$basic_string@DU?$char_traits@D@std@@V?$allocator@D@2@@std@@@std@@@2@$0A@@std@@@std@@QEAA@AEBV01@AEBV?$allocator@U?$pair@$$CBHV?$basic_string@DU?$char_traits@D@std@@V?$allocator@D@2@@std@@@std@@@1@@Z 0000000180015630     mex_opencv_2.4:MxArray.obj
 0004:0000063c       $pdata$?erase@?$_Tree@V?$_Tmap_traits@V?$basic_string@DU?$char_traits@D@std@@V?$allocator@D@2@@std@@HU?$less@V?$basic_string@DU?$char_traits@D@std@@V?$allocator@D@2@@std@@@2@V?$allocator@U?$pair@$$CBV?$basic_string@DU?$char_traits@D@std@@V?$allocator@D@2@@std@@H@std@@@2@$0A@@std@@@std@@QEAA?AV?$_Tree_iterator@V?$_Tree_val@U?$_Tree_simple_types@U?$pair@$$CBV?$basic_string@DU?$char_traits@D@std@@V?$allocator@D@2@@std@@H@std@@@std@@@std@@@2@V?$_Tree_const_iterator@V?$_Tree_val@U?$_Tree_simple_types@U?$pair@$$CBV?$basic_string@DU?$char_traits@D@std@@V?$allocator@D@2@@std@@H@std@@@std@@@std@@@2@0@Z 000000018001563c     mex_opencv_2.4:MxArray.obj
 0004:00000648       $pdata$?erase@?$_Tree@V?$_Tmap_traits@W4mxClassID@@HU?$less@W4mxClassID@@@std@@V?$allocator@U?$pair@$$CBW4mxClassID@@H@std@@@3@$0A@@std@@@std@@QEAA?AV?$_Tree_iterator@V?$_Tree_val@U?$_Tree_simple_types@U?$pair@$$CBW4mxClassID@@H@std@@@std@@@std@@@2@V?$_Tree_const_iterator@V?$_Tree_val@U?$_Tree_simple_types@U?$pair@$$CBW4mxClassID@@H@std@@@std@@@std@@@2@0@Z 0000000180015648     mex_opencv_2.4:MxArray.obj
 0004:00000648       $pdata$?erase@?$_Tree@V?$_Tmap_traits@HW4mxClassID@@U?$less@H@std@@V?$allocator@U?$pair@$$CBHW4mxClassID@@@std@@@3@$0A@@std@@@std@@QEAA?AV?$_Tree_iterator@V?$_Tree_val@U?$_Tree_simple_types@U?$pair@$$CBHW4mxClassID@@@std@@@std@@@std@@@2@V?$_Tree_const_iterator@V?$_Tree_val@U?$_Tree_simple_types@U?$pair@$$CBHW4mxClassID@@@std@@@std@@@std@@@2@0@Z 0000000180015648     mex_opencv_2.4:MxArray.obj
 0004:00000654       $pdata$0$?erase@?$_Tree@V?$_Tmap_traits@W4mxClassID@@HU?$less@W4mxClassID@@@std@@V?$allocator@U?$pair@$$CBW4mxClassID@@H@std@@@3@$0A@@std@@@std@@QEAA?AV?$_Tree_iterator@V?$_Tree_val@U?$_Tree_simple_types@U?$pair@$$CBW4mxClassID@@H@std@@@std@@@std@@@2@V?$_Tree_const_iterator@V?$_Tree_val@U?$_Tree_simple_types@U?$pair@$$CBW4mxClassID@@H@std@@@std@@@std@@@2@0@Z 0000000180015654     mex_opencv_2.4:MxArray.obj
 0004:00000654       $pdata$0$?erase@?$_Tree@V?$_Tmap_traits@HW4mxClassID@@U?$less@H@std@@V?$allocator@U?$pair@$$CBHW4mxClassID@@@std@@@3@$0A@@std@@@std@@QEAA?AV?$_Tree_iterator@V?$_Tree_val@U?$_Tree_simple_types@U?$pair@$$CBHW4mxClassID@@@std@@@std@@@std@@@2@V?$_Tree_const_iterator@V?$_Tree_val@U?$_Tree_simple_types@U?$pair@$$CBHW4mxClassID@@@std@@@std@@@std@@@2@0@Z 0000000180015654     mex_opencv_2.4:MxArray.obj
 0004:00000660       $pdata$1$?erase@?$_Tree@V?$_Tmap_traits@HW4mxClassID@@U?$less@H@std@@V?$allocator@U?$pair@$$CBHW4mxClassID@@@std@@@3@$0A@@std@@@std@@QEAA?AV?$_Tree_iterator@V?$_Tree_val@U?$_Tree_simple_types@U?$pair@$$CBHW4mxClassID@@@std@@@std@@@std@@@2@V?$_Tree_const_iterator@V?$_Tree_val@U?$_Tree_simple_types@U?$pair@$$CBHW4mxClassID@@@std@@@std@@@std@@@2@0@Z 0000000180015660     mex_opencv_2.4:MxArray.obj
 0004:00000660       $pdata$1$?erase@?$_Tree@V?$_Tmap_traits@W4mxClassID@@HU?$less@W4mxClassID@@@std@@V?$allocator@U?$pair@$$CBW4mxClassID@@H@std@@@3@$0A@@std@@@std@@QEAA?AV?$_Tree_iterator@V?$_Tree_val@U?$_Tree_simple_types@U?$pair@$$CBW4mxClassID@@H@std@@@std@@@std@@@2@V?$_Tree_const_iterator@V?$_Tree_val@U?$_Tree_simple_types@U?$pair@$$CBW4mxClassID@@H@std@@@std@@@std@@@2@0@Z 0000000180015660     mex_opencv_2.4:MxArray.obj
 0004:0000066c       $pdata$?erase@?$_Tree@V?$_Tmap_traits@HV?$basic_string@DU?$char_traits@D@std@@V?$allocator@D@2@@std@@U?$less@H@2@V?$allocator@U?$pair@$$CBHV?$basic_string@DU?$char_traits@D@std@@V?$allocator@D@2@@std@@@std@@@2@$0A@@std@@@std@@QEAA?AV?$_Tree_iterator@V?$_Tree_val@U?$_Tree_simple_types@U?$pair@$$CBHV?$basic_string@DU?$char_traits@D@std@@V?$allocator@D@2@@std@@@std@@@std@@@std@@@2@V?$_Tree_const_iterator@V?$_Tree_val@U?$_Tree_simple_types@U?$pair@$$CBHV?$basic_string@DU?$char_traits@D@std@@V?$allocator@D@2@@std@@@std@@@std@@@std@@@2@0@Z 000000018001566c     mex_opencv_2.4:MxArray.obj
 0004:00000678       $pdata$?erase@?$_Tree@V?$_Tmap_traits@V?$basic_string@DU?$char_traits@D@std@@V?$allocator@D@2@@std@@HU?$less@V?$basic_string@DU?$char_traits@D@std@@V?$allocator@D@2@@std@@@2@V?$allocator@U?$pair@$$CBV?$basic_string@DU?$char_traits@D@std@@V?$allocator@D@2@@std@@H@std@@@2@$0A@@std@@@std@@QEAA?AV?$_Tree_iterator@V?$_Tree_val@U?$_Tree_simple_types@U?$pair@$$CBV?$basic_string@DU?$char_traits@D@std@@V?$allocator@D@2@@std@@H@std@@@std@@@std@@@2@V?$_Tree_const_iterator@V?$_Tree_val@U?$_Tree_simple_types@U?$pair@$$CBV?$basic_string@DU?$char_traits@D@std@@V?$allocator@D@2@@std@@H@std@@@std@@@std@@@2@@Z 0000000180015678     mex_opencv_2.4:MxArray.obj
 0004:00000684       $pdata$0$?erase@?$_Tree@V?$_Tmap_traits@V?$basic_string@DU?$char_traits@D@std@@V?$allocator@D@2@@std@@HU?$less@V?$basic_string@DU?$char_traits@D@std@@V?$allocator@D@2@@std@@@2@V?$allocator@U?$pair@$$CBV?$basic_string@DU?$char_traits@D@std@@V?$allocator@D@2@@std@@H@std@@@2@$0A@@std@@@std@@QEAA?AV?$_Tree_iterator@V?$_Tree_val@U?$_Tree_simple_types@U?$pair@$$CBV?$basic_string@DU?$char_traits@D@std@@V?$allocator@D@2@@std@@H@std@@@std@@@std@@@2@V?$_Tree_const_iterator@V?$_Tree_val@U?$_Tree_simple_types@U?$pair@$$CBV?$basic_string@DU?$char_traits@D@std@@V?$allocator@D@2@@std@@H@std@@@std@@@std@@@2@@Z 0000000180015684     mex_opencv_2.4:MxArray.obj
 0004:00000690       $pdata$2$?erase@?$_Tree@V?$_Tmap_traits@V?$basic_string@DU?$char_traits@D@std@@V?$allocator@D@2@@std@@HU?$less@V?$basic_string@DU?$char_traits@D@std@@V?$allocator@D@2@@std@@@2@V?$allocator@U?$pair@$$CBV?$basic_string@DU?$char_traits@D@std@@V?$allocator@D@2@@std@@H@std@@@2@$0A@@std@@@std@@QEAA?AV?$_Tree_iterator@V?$_Tree_val@U?$_Tree_simple_types@U?$pair@$$CBV?$basic_string@DU?$char_traits@D@std@@V?$allocator@D@2@@std@@H@std@@@std@@@std@@@2@V?$_Tree_const_iterator@V?$_Tree_val@U?$_Tree_simple_types@U?$pair@$$CBV?$basic_string@DU?$char_traits@D@std@@V?$allocator@D@2@@std@@H@std@@@std@@@std@@@2@@Z 0000000180015690     mex_opencv_2.4:MxArray.obj
 0004:0000069c       $pdata$3$?erase@?$_Tree@V?$_Tmap_traits@V?$basic_string@DU?$char_traits@D@std@@V?$allocator@D@2@@std@@HU?$less@V?$basic_string@DU?$char_traits@D@std@@V?$allocator@D@2@@std@@@2@V?$allocator@U?$pair@$$CBV?$basic_string@DU?$char_traits@D@std@@V?$allocator@D@2@@std@@H@std@@@2@$0A@@std@@@std@@QEAA?AV?$_Tree_iterator@V?$_Tree_val@U?$_Tree_simple_types@U?$pair@$$CBV?$basic_string@DU?$char_traits@D@std@@V?$allocator@D@2@@std@@H@std@@@std@@@std@@@2@V?$_Tree_const_iterator@V?$_Tree_val@U?$_Tree_simple_types@U?$pair@$$CBV?$basic_string@DU?$char_traits@D@std@@V?$allocator@D@2@@std@@H@std@@@std@@@std@@@2@@Z 000000018001569c     mex_opencv_2.4:MxArray.obj
 0004:000006a8       $pdata$4$?erase@?$_Tree@V?$_Tmap_traits@V?$basic_string@DU?$char_traits@D@std@@V?$allocator@D@2@@std@@HU?$less@V?$basic_string@DU?$char_traits@D@std@@V?$allocator@D@2@@std@@@2@V?$allocator@U?$pair@$$CBV?$basic_string@DU?$char_traits@D@std@@V?$allocator@D@2@@std@@H@std@@@2@$0A@@std@@@std@@QEAA?AV?$_Tree_iterator@V?$_Tree_val@U?$_Tree_simple_types@U?$pair@$$CBV?$basic_string@DU?$char_traits@D@std@@V?$allocator@D@2@@std@@H@std@@@std@@@std@@@2@V?$_Tree_const_iterator@V?$_Tree_val@U?$_Tree_simple_types@U?$pair@$$CBV?$basic_string@DU?$char_traits@D@std@@V?$allocator@D@2@@std@@H@std@@@std@@@std@@@2@@Z 00000001800156a8     mex_opencv_2.4:MxArray.obj
 0004:000006b4       $pdata$?erase@?$_Tree@V?$_Tmap_traits@W4mxClassID@@HU?$less@W4mxClassID@@@std@@V?$allocator@U?$pair@$$CBW4mxClassID@@H@std@@@3@$0A@@std@@@std@@QEAA?AV?$_Tree_iterator@V?$_Tree_val@U?$_Tree_simple_types@U?$pair@$$CBW4mxClassID@@H@std@@@std@@@std@@@2@V?$_Tree_const_iterator@V?$_Tree_val@U?$_Tree_simple_types@U?$pair@$$CBW4mxClassID@@H@std@@@std@@@std@@@2@@Z 00000001800156b4     mex_opencv_2.4:MxArray.obj
 0004:000006b4       $pdata$?erase@?$_Tree@V?$_Tmap_traits@HW4mxClassID@@U?$less@H@std@@V?$allocator@U?$pair@$$CBHW4mxClassID@@@std@@@3@$0A@@std@@@std@@QEAA?AV?$_Tree_iterator@V?$_Tree_val@U?$_Tree_simple_types@U?$pair@$$CBHW4mxClassID@@@std@@@std@@@std@@@2@V?$_Tree_const_iterator@V?$_Tree_val@U?$_Tree_simple_types@U?$pair@$$CBHW4mxClassID@@@std@@@std@@@std@@@2@@Z 00000001800156b4     mex_opencv_2.4:MxArray.obj
 0004:000006c0       $pdata$2$?erase@?$_Tree@V?$_Tmap_traits@W4mxClassID@@HU?$less@W4mxClassID@@@std@@V?$allocator@U?$pair@$$CBW4mxClassID@@H@std@@@3@$0A@@std@@@std@@QEAA?AV?$_Tree_iterator@V?$_Tree_val@U?$_Tree_simple_types@U?$pair@$$CBW4mxClassID@@H@std@@@std@@@std@@@2@V?$_Tree_const_iterator@V?$_Tree_val@U?$_Tree_simple_types@U?$pair@$$CBW4mxClassID@@H@std@@@std@@@std@@@2@@Z 00000001800156c0     mex_opencv_2.4:MxArray.obj
 0004:000006c0       $pdata$2$?erase@?$_Tree@V?$_Tmap_traits@HW4mxClassID@@U?$less@H@std@@V?$allocator@U?$pair@$$CBHW4mxClassID@@@std@@@3@$0A@@std@@@std@@QEAA?AV?$_Tree_iterator@V?$_Tree_val@U?$_Tree_simple_types@U?$pair@$$CBHW4mxClassID@@@std@@@std@@@std@@@2@V?$_Tree_const_iterator@V?$_Tree_val@U?$_Tree_simple_types@U?$pair@$$CBHW4mxClassID@@@std@@@std@@@std@@@2@@Z 00000001800156c0     mex_opencv_2.4:MxArray.obj
 0004:000006cc       $pdata$3$?erase@?$_Tree@V?$_Tmap_traits@HW4mxClassID@@U?$less@H@std@@V?$allocator@U?$pair@$$CBHW4mxClassID@@@std@@@3@$0A@@std@@@std@@QEAA?AV?$_Tree_iterator@V?$_Tree_val@U?$_Tree_simple_types@U?$pair@$$CBHW4mxClassID@@@std@@@std@@@std@@@2@V?$_Tree_const_iterator@V?$_Tree_val@U?$_Tree_simple_types@U?$pair@$$CBHW4mxClassID@@@std@@@std@@@std@@@2@@Z 00000001800156cc     mex_opencv_2.4:MxArray.obj
 0004:000006cc       $pdata$3$?erase@?$_Tree@V?$_Tmap_traits@W4mxClassID@@HU?$less@W4mxClassID@@@std@@V?$allocator@U?$pair@$$CBW4mxClassID@@H@std@@@3@$0A@@std@@@std@@QEAA?AV?$_Tree_iterator@V?$_Tree_val@U?$_Tree_simple_types@U?$pair@$$CBW4mxClassID@@H@std@@@std@@@std@@@2@V?$_Tree_const_iterator@V?$_Tree_val@U?$_Tree_simple_types@U?$pair@$$CBW4mxClassID@@H@std@@@std@@@std@@@2@@Z 00000001800156cc     mex_opencv_2.4:MxArray.obj
 0004:000006d8       $pdata$?erase@?$_Tree@V?$_Tmap_traits@HV?$basic_string@DU?$char_traits@D@std@@V?$allocator@D@2@@std@@U?$less@H@2@V?$allocator@U?$pair@$$CBHV?$basic_string@DU?$char_traits@D@std@@V?$allocator@D@2@@std@@@std@@@2@$0A@@std@@@std@@QEAA?AV?$_Tree_iterator@V?$_Tree_val@U?$_Tree_simple_types@U?$pair@$$CBHV?$basic_string@DU?$char_traits@D@std@@V?$allocator@D@2@@std@@@std@@@std@@@std@@@2@V?$_Tree_const_iterator@V?$_Tree_val@U?$_Tree_simple_types@U?$pair@$$CBHV?$basic_string@DU?$char_traits@D@std@@V?$allocator@D@2@@std@@@std@@@std@@@std@@@2@@Z 00000001800156d8     mex_opencv_2.4:MxArray.obj
 0004:000006e4       $pdata$0$?erase@?$_Tree@V?$_Tmap_traits@HV?$basic_string@DU?$char_traits@D@std@@V?$allocator@D@2@@std@@U?$less@H@2@V?$allocator@U?$pair@$$CBHV?$basic_string@DU?$char_traits@D@std@@V?$allocator@D@2@@std@@@std@@@2@$0A@@std@@@std@@QEAA?AV?$_Tree_iterator@V?$_Tree_val@U?$_Tree_simple_types@U?$pair@$$CBHV?$basic_string@DU?$char_traits@D@std@@V?$allocator@D@2@@std@@@std@@@std@@@std@@@2@V?$_Tree_const_iterator@V?$_Tree_val@U?$_Tree_simple_types@U?$pair@$$CBHV?$basic_string@DU?$char_traits@D@std@@V?$allocator@D@2@@std@@@std@@@std@@@std@@@2@@Z 00000001800156e4     mex_opencv_2.4:MxArray.obj
 0004:000006f0       $pdata$2$?erase@?$_Tree@V?$_Tmap_traits@HV?$basic_string@DU?$char_traits@D@std@@V?$allocator@D@2@@std@@U?$less@H@2@V?$allocator@U?$pair@$$CBHV?$basic_string@DU?$char_traits@D@std@@V?$allocator@D@2@@std@@@std@@@2@$0A@@std@@@std@@QEAA?AV?$_Tree_iterator@V?$_Tree_val@U?$_Tree_simple_types@U?$pair@$$CBHV?$basic_string@DU?$char_traits@D@std@@V?$allocator@D@2@@std@@@std@@@std@@@std@@@2@V?$_Tree_const_iterator@V?$_Tree_val@U?$_Tree_simple_types@U?$pair@$$CBHV?$basic_string@DU?$char_traits@D@std@@V?$allocator@D@2@@std@@@std@@@std@@@std@@@2@@Z 00000001800156f0     mex_opencv_2.4:MxArray.obj
 0004:000006fc       $pdata$3$?erase@?$_Tree@V?$_Tmap_traits@HV?$basic_string@DU?$char_traits@D@std@@V?$allocator@D@2@@std@@U?$less@H@2@V?$allocator@U?$pair@$$CBHV?$basic_string@DU?$char_traits@D@std@@V?$allocator@D@2@@std@@@std@@@2@$0A@@std@@@std@@QEAA?AV?$_Tree_iterator@V?$_Tree_val@U?$_Tree_simple_types@U?$pair@$$CBHV?$basic_string@DU?$char_traits@D@std@@V?$allocator@D@2@@std@@@std@@@std@@@std@@@2@V?$_Tree_const_iterator@V?$_Tree_val@U?$_Tree_simple_types@U?$pair@$$CBHV?$basic_string@DU?$char_traits@D@std@@V?$allocator@D@2@@std@@@std@@@std@@@std@@@2@@Z 00000001800156fc     mex_opencv_2.4:MxArray.obj
 0004:00000708       $pdata$4$?erase@?$_Tree@V?$_Tmap_traits@HV?$basic_string@DU?$char_traits@D@std@@V?$allocator@D@2@@std@@U?$less@H@2@V?$allocator@U?$pair@$$CBHV?$basic_string@DU?$char_traits@D@std@@V?$allocator@D@2@@std@@@std@@@2@$0A@@std@@@std@@QEAA?AV?$_Tree_iterator@V?$_Tree_val@U?$_Tree_simple_types@U?$pair@$$CBHV?$basic_string@DU?$char_traits@D@std@@V?$allocator@D@2@@std@@@std@@@std@@@std@@@2@V?$_Tree_const_iterator@V?$_Tree_val@U?$_Tree_simple_types@U?$pair@$$CBHV?$basic_string@DU?$char_traits@D@std@@V?$allocator@D@2@@std@@@std@@@std@@@std@@@2@@Z 0000000180015708     mex_opencv_2.4:MxArray.obj
 0004:00000714       $pdata$?_Erase@?$_Tree@V?$_Tmap_traits@V?$basic_string@DU?$char_traits@D@std@@V?$allocator@D@2@@std@@HU?$less@V?$basic_string@DU?$char_traits@D@std@@V?$allocator@D@2@@std@@@2@V?$allocator@U?$pair@$$CBV?$basic_string@DU?$char_traits@D@std@@V?$allocator@D@2@@std@@H@std@@@2@$0A@@std@@@std@@IEAAXPEAU?$_Tree_node@U?$pair@$$CBV?$basic_string@DU?$char_traits@D@std@@V?$allocator@D@2@@std@@H@std@@PEAX@2@@Z 0000000180015714     mex_opencv_2.4:MxArray.obj
 0004:00000720       $pdata$0$?_Erase@?$_Tree@V?$_Tmap_traits@V?$basic_string@DU?$char_traits@D@std@@V?$allocator@D@2@@std@@HU?$less@V?$basic_string@DU?$char_traits@D@std@@V?$allocator@D@2@@std@@@2@V?$allocator@U?$pair@$$CBV?$basic_string@DU?$char_traits@D@std@@V?$allocator@D@2@@std@@H@std@@@2@$0A@@std@@@std@@IEAAXPEAU?$_Tree_node@U?$pair@$$CBV?$basic_string@DU?$char_traits@D@std@@V?$allocator@D@2@@std@@H@std@@PEAX@2@@Z 0000000180015720     mex_opencv_2.4:MxArray.obj
 0004:0000072c       $pdata$1$?_Erase@?$_Tree@V?$_Tmap_traits@V?$basic_string@DU?$char_traits@D@std@@V?$allocator@D@2@@std@@HU?$less@V?$basic_string@DU?$char_traits@D@std@@V?$allocator@D@2@@std@@@2@V?$allocator@U?$pair@$$CBV?$basic_string@DU?$char_traits@D@std@@V?$allocator@D@2@@std@@H@std@@@2@$0A@@std@@@std@@IEAAXPEAU?$_Tree_node@U?$pair@$$CBV?$basic_string@DU?$char_traits@D@std@@V?$allocator@D@2@@std@@H@std@@PEAX@2@@Z 000000018001572c     mex_opencv_2.4:MxArray.obj
 0004:00000738       $pdata$?_Erase@?$_Tree@V?$_Tmap_traits@W4mxClassID@@HU?$less@W4mxClassID@@@std@@V?$allocator@U?$pair@$$CBW4mxClassID@@H@std@@@3@$0A@@std@@@std@@IEAAXPEAU?$_Tree_node@U?$pair@$$CBW4mxClassID@@H@std@@PEAX@2@@Z 0000000180015738     mex_opencv_2.4:MxArray.obj
 0004:00000738       $pdata$?_Erase@?$_Tree@V?$_Tmap_traits@HW4mxClassID@@U?$less@H@std@@V?$allocator@U?$pair@$$CBHW4mxClassID@@@std@@@3@$0A@@std@@@std@@IEAAXPEAU?$_Tree_node@U?$pair@$$CBHW4mxClassID@@@std@@PEAX@2@@Z 0000000180015738     mex_opencv_2.4:MxArray.obj
 0004:00000744       $pdata$?_Erase@?$_Tree@V?$_Tmap_traits@HV?$basic_string@DU?$char_traits@D@std@@V?$allocator@D@2@@std@@U?$less@H@2@V?$allocator@U?$pair@$$CBHV?$basic_string@DU?$char_traits@D@std@@V?$allocator@D@2@@std@@@std@@@2@$0A@@std@@@std@@IEAAXPEAU?$_Tree_node@U?$pair@$$CBHV?$basic_string@DU?$char_traits@D@std@@V?$allocator@D@2@@std@@@std@@PEAX@2@@Z 0000000180015744     mex_opencv_2.4:MxArray.obj
 0004:00000750       $pdata$0$?_Erase@?$_Tree@V?$_Tmap_traits@HV?$basic_string@DU?$char_traits@D@std@@V?$allocator@D@2@@std@@U?$less@H@2@V?$allocator@U?$pair@$$CBHV?$basic_string@DU?$char_traits@D@std@@V?$allocator@D@2@@std@@@std@@@2@$0A@@std@@@std@@IEAAXPEAU?$_Tree_node@U?$pair@$$CBHV?$basic_string@DU?$char_traits@D@std@@V?$allocator@D@2@@std@@@std@@PEAX@2@@Z 0000000180015750     mex_opencv_2.4:MxArray.obj
 0004:0000075c       $pdata$1$?_Erase@?$_Tree@V?$_Tmap_traits@HV?$basic_string@DU?$char_traits@D@std@@V?$allocator@D@2@@std@@U?$less@H@2@V?$allocator@U?$pair@$$CBHV?$basic_string@DU?$char_traits@D@std@@V?$allocator@D@2@@std@@@std@@@2@$0A@@std@@@std@@IEAAXPEAU?$_Tree_node@U?$pair@$$CBHV?$basic_string@DU?$char_traits@D@std@@V?$allocator@D@2@@std@@@std@@PEAX@2@@Z 000000018001575c     mex_opencv_2.4:MxArray.obj
 0004:00000768       $pdata$?_Buyheadnode@?$_Tree_alloc@$0A@U?$_Tree_base_types@U?$pair@$$CBV?$basic_string@DU?$char_traits@D@std@@V?$allocator@D@2@@std@@H@std@@V?$allocator@U?$pair@$$CBV?$basic_string@DU?$char_traits@D@std@@V?$allocator@D@2@@std@@H@std@@@2@@std@@@std@@QEAAPEAU?$_Tree_node@U?$pair@$$CBV?$basic_string@DU?$char_traits@D@std@@V?$allocator@D@2@@std@@H@std@@PEAX@2@XZ 0000000180015768     mex_opencv_2.4:MxArray.obj
 0004:00000768       $pdata$?_Buyheadnode@?$_Tree_alloc@$0A@U?$_Tree_base_types@U?$pair@$$CBHV?$basic_string@DU?$char_traits@D@std@@V?$allocator@D@2@@std@@@std@@V?$allocator@U?$pair@$$CBHV?$basic_string@DU?$char_traits@D@std@@V?$allocator@D@2@@std@@@std@@@2@@std@@@std@@QEAAPEAU?$_Tree_node@U?$pair@$$CBHV?$basic_string@DU?$char_traits@D@std@@V?$allocator@D@2@@std@@@std@@PEAX@2@XZ 0000000180015768     mex_opencv_2.4:MxArray.obj
 0004:00000774       $pdata$?_Buyheadnode@?$_Tree_alloc@$0A@U?$_Tree_base_types@U?$pair@$$CBW4mxClassID@@H@std@@V?$allocator@U?$pair@$$CBW4mxClassID@@H@std@@@2@@std@@@std@@QEAAPEAU?$_Tree_node@U?$pair@$$CBW4mxClassID@@H@std@@PEAX@2@XZ 0000000180015774     mex_opencv_2.4:MxArray.obj
 0004:00000774       $pdata$?_Buyheadnode@?$_Tree_alloc@$0A@U?$_Tree_base_types@U?$pair@$$CBHW4mxClassID@@@std@@V?$allocator@U?$pair@$$CBHW4mxClassID@@@std@@@2@@std@@@std@@QEAAPEAU?$_Tree_node@U?$pair@$$CBHW4mxClassID@@@std@@PEAX@2@XZ 0000000180015774     mex_opencv_2.4:MxArray.obj
 0004:00000780       $pdata$??$at@H@MxArray@@QEBAH_K@Z 0000000180015780     mex_opencv_2.4:MxArray.obj
 0004:0000078c       $pdata$??$at@N@MxArray@@QEBAN_K@Z 000000018001578c     mex_opencv_2.4:MxArray.obj
 0004:00000798       $pdata$??$_Copy@U?$integral_constant@_N$0A@@std@@@?$_Tree@V?$_Tmap_traits@V?$basic_string@DU?$char_traits@D@std@@V?$allocator@D@2@@std@@HU?$less@V?$basic_string@DU?$char_traits@D@std@@V?$allocator@D@2@@std@@@2@V?$allocator@U?$pair@$$CBV?$basic_string@DU?$char_traits@D@std@@V?$allocator@D@2@@std@@H@std@@@2@$0A@@std@@@std@@IEAAXAEBV01@U?$integral_constant@_N$0A@@1@@Z 0000000180015798     mex_opencv_2.4:MxArray.obj
 0004:000007a4       $pdata$??$_Copy@U?$integral_constant@_N$0A@@std@@@?$_Tree@V?$_Tmap_traits@W4mxClassID@@HU?$less@W4mxClassID@@@std@@V?$allocator@U?$pair@$$CBW4mxClassID@@H@std@@@3@$0A@@std@@@std@@IEAAXAEBV01@U?$integral_constant@_N$0A@@1@@Z 00000001800157a4     mex_opencv_2.4:MxArray.obj
 0004:000007b0       $pdata$??$_Copy@U?$integral_constant@_N$0A@@std@@@?$_Tree@V?$_Tmap_traits@HW4mxClassID@@U?$less@H@std@@V?$allocator@U?$pair@$$CBHW4mxClassID@@@std@@@3@$0A@@std@@@std@@IEAAXAEBV01@U?$integral_constant@_N$0A@@1@@Z 00000001800157b0     mex_opencv_2.4:MxArray.obj
 0004:000007bc       $pdata$??$_Copy@U?$integral_constant@_N$0A@@std@@@?$_Tree@V?$_Tmap_traits@HV?$basic_string@DU?$char_traits@D@std@@V?$allocator@D@2@@std@@U?$less@H@2@V?$allocator@U?$pair@$$CBHV?$basic_string@DU?$char_traits@D@std@@V?$allocator@D@2@@std@@@std@@@2@$0A@@std@@@std@@IEAAXAEBV01@U?$integral_constant@_N$0A@@1@@Z 00000001800157bc     mex_opencv_2.4:MxArray.obj
 0004:000007c8       $pdata$??$_Buynode@AEBUpiecewise_construct_t@std@@V?$tuple@AEBV?$basic_string@DU?$char_traits@D@std@@V?$allocator@D@2@@std@@@2@V?$tuple@$$$V@2@@?$_Tree_buy@U?$pair@$$CBV?$basic_string@DU?$char_traits@D@std@@V?$allocator@D@2@@std@@H@std@@V?$allocator@U?$pair@$$CBV?$basic_string@DU?$char_traits@D@std@@V?$allocator@D@2@@std@@H@std@@@2@@std@@QEAAPEAU?$_Tree_node@U?$pair@$$CBV?$basic_string@DU?$char_traits@D@std@@V?$allocator@D@2@@std@@H@std@@PEAX@1@AEBUpiecewise_construct_t@1@$$QEAV?$tuple@AEBV?$basic_string@DU?$char_traits@D@std@@V?$allocator@D@2@@std@@@1@$$QEAV?$tuple@$$$V@1@@Z 00000001800157c8     mex_opencv_2.4:MxArray.obj
 0004:000007d4       $pdata$??$_Insert_hint@AEAU?$pair@$$CBV?$basic_string@DU?$char_traits@D@std@@V?$allocator@D@2@@std@@H@std@@PEAU?$_Tree_node@U?$pair@$$CBV?$basic_string@DU?$char_traits@D@std@@V?$allocator@D@2@@std@@H@std@@PEAX@2@@?$_Tree@V?$_Tmap_traits@V?$basic_string@DU?$char_traits@D@std@@V?$allocator@D@2@@std@@HU?$less@V?$basic_string@DU?$char_traits@D@std@@V?$allocator@D@2@@std@@@2@V?$allocator@U?$pair@$$CBV?$basic_string@DU?$char_traits@D@std@@V?$allocator@D@2@@std@@H@std@@@2@$0A@@std@@@std@@IEAA?AV?$_Tree_iterator@V?$_Tree_val@U?$_Tree_simple_types@U?$pair@$$CBV?$basic_string@DU?$char_traits@D@std@@V?$allocator@D@2@@std@@H@std@@@std@@@std@@@1@V?$_Tree_const_iterator@V?$_Tree_val@U?$_Tree_simple_types@U?$pair@$$CBV?$basic_string@DU?$char_traits@D@std@@V?$allocator@D@2@@std@@H@std@@@std@@@std@@@1@AEAU?$pair@$$CBV?$basic_string@DU?$char_traits@D@std@@V?$allocator@D@2@@std@@H@1@PEAU?$_Tree_node@U?$pair@$$CBV?$basic_string@DU?$char_traits@D@std@@V?$allocator@D@2@@std@@H@std@@PEAX@1@@Z 00000001800157d4     mex_opencv_2.4:MxArray.obj
 0004:000007e0       $pdata$??$_Copy_nodes@U?$integral_constant@_N$0A@@std@@@?$_Tree@V?$_Tmap_traits@V?$basic_string@DU?$char_traits@D@std@@V?$allocator@D@2@@std@@HU?$less@V?$basic_string@DU?$char_traits@D@std@@V?$allocator@D@2@@std@@@2@V?$allocator@U?$pair@$$CBV?$basic_string@DU?$char_traits@D@std@@V?$allocator@D@2@@std@@H@std@@@2@$0A@@std@@@std@@IEAAPEAU?$_Tree_node@U?$pair@$$CBV?$basic_string@DU?$char_traits@D@std@@V?$allocator@D@2@@std@@H@std@@PEAX@1@PEAU21@0U?$integral_constant@_N$0A@@1@@Z 00000001800157e0     mex_opencv_2.4:MxArray.obj
 0004:000007ec       $pdata$??$_Buynode@AEBUpiecewise_construct_t@std@@V?$tuple@AEBH@2@V?$tuple@$$$V@2@@?$_Tree_buy@U?$pair@$$CBHW4mxClassID@@@std@@V?$allocator@U?$pair@$$CBHW4mxClassID@@@std@@@2@@std@@QEAAPEAU?$_Tree_node@U?$pair@$$CBHW4mxClassID@@@std@@PEAX@1@AEBUpiecewise_construct_t@1@$$QEAV?$tuple@AEBH@1@$$QEAV?$tuple@$$$V@1@@Z 00000001800157ec     mex_opencv_2.4:MxArray.obj
 0004:000007ec       $pdata$??$_Buynode@AEBUpiecewise_construct_t@std@@V?$tuple@AEBW4mxClassID@@@2@V?$tuple@$$$V@2@@?$_Tree_buy@U?$pair@$$CBW4mxClassID@@H@std@@V?$allocator@U?$pair@$$CBW4mxClassID@@H@std@@@2@@std@@QEAAPEAU?$_Tree_node@U?$pair@$$CBW4mxClassID@@H@std@@PEAX@1@AEBUpiecewise_construct_t@1@$$QEAV?$tuple@AEBW4mxClassID@@@1@$$QEAV?$tuple@$$$V@1@@Z 00000001800157ec     mex_opencv_2.4:MxArray.obj
 0004:000007f8       $pdata$??$_Insert_hint@AEAU?$pair@$$CBHW4mxClassID@@@std@@PEAU?$_Tree_node@U?$pair@$$CBHW4mxClassID@@@std@@PEAX@2@@?$_Tree@V?$_Tmap_traits@HW4mxClassID@@U?$less@H@std@@V?$allocator@U?$pair@$$CBHW4mxClassID@@@std@@@3@$0A@@std@@@std@@IEAA?AV?$_Tree_iterator@V?$_Tree_val@U?$_Tree_simple_types@U?$pair@$$CBHW4mxClassID@@@std@@@std@@@std@@@1@V?$_Tree_const_iterator@V?$_Tree_val@U?$_Tree_simple_types@U?$pair@$$CBHW4mxClassID@@@std@@@std@@@std@@@1@AEAU?$pair@$$CBHW4mxClassID@@@1@PEAU?$_Tree_node@U?$pair@$$CBHW4mxClassID@@@std@@PEAX@1@@Z 00000001800157f8     mex_opencv_2.4:MxArray.obj
 0004:000007f8       $pdata$??$_Insert_hint@AEAU?$pair@$$CBW4mxClassID@@H@std@@PEAU?$_Tree_node@U?$pair@$$CBW4mxClassID@@H@std@@PEAX@2@@?$_Tree@V?$_Tmap_traits@W4mxClassID@@HU?$less@W4mxClassID@@@std@@V?$allocator@U?$pair@$$CBW4mxClassID@@H@std@@@3@$0A@@std@@@std@@IEAA?AV?$_Tree_iterator@V?$_Tree_val@U?$_Tree_simple_types@U?$pair@$$CBW4mxClassID@@H@std@@@std@@@std@@@1@V?$_Tree_const_iterator@V?$_Tree_val@U?$_Tree_simple_types@U?$pair@$$CBW4mxClassID@@H@std@@@std@@@std@@@1@AEAU?$pair@$$CBW4mxClassID@@H@1@PEAU?$_Tree_node@U?$pair@$$CBW4mxClassID@@H@std@@PEAX@1@@Z 00000001800157f8     mex_opencv_2.4:MxArray.obj
 0004:00000804       $pdata$??$_Copy_nodes@U?$integral_constant@_N$0A@@std@@@?$_Tree@V?$_Tmap_traits@W4mxClassID@@HU?$less@W4mxClassID@@@std@@V?$allocator@U?$pair@$$CBW4mxClassID@@H@std@@@3@$0A@@std@@@std@@IEAAPEAU?$_Tree_node@U?$pair@$$CBW4mxClassID@@H@std@@PEAX@1@PEAU21@0U?$integral_constant@_N$0A@@1@@Z 0000000180015804     mex_opencv_2.4:MxArray.obj
 0004:00000804       $pdata$??$_Copy_nodes@U?$integral_constant@_N$0A@@std@@@?$_Tree@V?$_Tmap_traits@HW4mxClassID@@U?$less@H@std@@V?$allocator@U?$pair@$$CBHW4mxClassID@@@std@@@3@$0A@@std@@@std@@IEAAPEAU?$_Tree_node@U?$pair@$$CBHW4mxClassID@@@std@@PEAX@1@PEAU21@0U?$integral_constant@_N$0A@@1@@Z 0000000180015804     mex_opencv_2.4:MxArray.obj
 0004:00000810       $pdata$??$_Buynode@AEBUpiecewise_construct_t@std@@V?$tuple@AEBH@2@V?$tuple@$$$V@2@@?$_Tree_buy@U?$pair@$$CBHV?$basic_string@DU?$char_traits@D@std@@V?$allocator@D@2@@std@@@std@@V?$allocator@U?$pair@$$CBHV?$basic_string@DU?$char_traits@D@std@@V?$allocator@D@2@@std@@@std@@@2@@std@@QEAAPEAU?$_Tree_node@U?$pair@$$CBHV?$basic_string@DU?$char_traits@D@std@@V?$allocator@D@2@@std@@@std@@PEAX@1@AEBUpiecewise_construct_t@1@$$QEAV?$tuple@AEBH@1@$$QEAV?$tuple@$$$V@1@@Z 0000000180015810     mex_opencv_2.4:MxArray.obj
 0004:0000081c       $pdata$??$_Insert_hint@AEAU?$pair@$$CBHV?$basic_string@DU?$char_traits@D@std@@V?$allocator@D@2@@std@@@std@@PEAU?$_Tree_node@U?$pair@$$CBHV?$basic_string@DU?$char_traits@D@std@@V?$allocator@D@2@@std@@@std@@PEAX@2@@?$_Tree@V?$_Tmap_traits@HV?$basic_string@DU?$char_traits@D@std@@V?$allocator@D@2@@std@@U?$less@H@2@V?$allocator@U?$pair@$$CBHV?$basic_string@DU?$char_traits@D@std@@V?$allocator@D@2@@std@@@std@@@2@$0A@@std@@@std@@IEAA?AV?$_Tree_iterator@V?$_Tree_val@U?$_Tree_simple_types@U?$pair@$$CBHV?$basic_string@DU?$char_traits@D@std@@V?$allocator@D@2@@std@@@std@@@std@@@std@@@1@V?$_Tree_const_iterator@V?$_Tree_val@U?$_Tree_simple_types@U?$pair@$$CBHV?$basic_string@DU?$char_traits@D@std@@V?$allocator@D@2@@std@@@std@@@std@@@std@@@1@AEAU?$pair@$$CBHV?$basic_string@DU?$char_traits@D@std@@V?$allocator@D@2@@std@@@1@PEAU?$_Tree_node@U?$pair@$$CBHV?$basic_string@DU?$char_traits@D@std@@V?$allocator@D@2@@std@@@std@@PEAX@1@@Z 000000018001581c     mex_opencv_2.4:MxArray.obj
 0004:00000828       $pdata$??$_Copy_nodes@U?$integral_constant@_N$0A@@std@@@?$_Tree@V?$_Tmap_traits@HV?$basic_string@DU?$char_traits@D@std@@V?$allocator@D@2@@std@@U?$less@H@2@V?$allocator@U?$pair@$$CBHV?$basic_string@DU?$char_traits@D@std@@V?$allocator@D@2@@std@@@std@@@2@$0A@@std@@@std@@IEAAPEAU?$_Tree_node@U?$pair@$$CBHV?$basic_string@DU?$char_traits@D@std@@V?$allocator@D@2@@std@@@std@@PEAX@1@PEAU21@0U?$integral_constant@_N$0A@@1@@Z 0000000180015828     mex_opencv_2.4:MxArray.obj
 0004:00000834       $pdata$?_Destroy_if_not_nil@?$_Tree@V?$_Tmap_traits@V?$basic_string@DU?$char_traits@D@std@@V?$allocator@D@2@@std@@HU?$less@V?$basic_string@DU?$char_traits@D@std@@V?$allocator@D@2@@std@@@2@V?$allocator@U?$pair@$$CBV?$basic_string@DU?$char_traits@D@std@@V?$allocator@D@2@@std@@H@std@@@2@$0A@@std@@@std@@IEAAXPEAU?$_Tree_node@U?$pair@$$CBV?$basic_string@DU?$char_traits@D@std@@V?$allocator@D@2@@std@@H@std@@PEAX@2@@Z 0000000180015834     mex_opencv_2.4:MxArray.obj
 0004:00000840       $pdata$?_Buynode0@?$_Tree_buy@U?$pair@$$CBV?$basic_string@DU?$char_traits@D@std@@V?$allocator@D@2@@std@@H@std@@V?$allocator@U?$pair@$$CBV?$basic_string@DU?$char_traits@D@std@@V?$allocator@D@2@@std@@H@std@@@2@@std@@QEAAPEAU?$_Tree_node@U?$pair@$$CBV?$basic_string@DU?$char_traits@D@std@@V?$allocator@D@2@@std@@H@std@@PEAX@2@XZ 0000000180015840     mex_opencv_2.4:MxArray.obj
 0004:00000840       $pdata$?_Buynode0@?$_Tree_buy@U?$pair@$$CBHV?$basic_string@DU?$char_traits@D@std@@V?$allocator@D@2@@std@@@std@@V?$allocator@U?$pair@$$CBHV?$basic_string@DU?$char_traits@D@std@@V?$allocator@D@2@@std@@@std@@@2@@std@@QEAAPEAU?$_Tree_node@U?$pair@$$CBHV?$basic_string@DU?$char_traits@D@std@@V?$allocator@D@2@@std@@@std@@PEAX@2@XZ 0000000180015840     mex_opencv_2.4:MxArray.obj
 0004:0000084c       $pdata$?_Buynode0@?$_Tree_buy@U?$pair@$$CBW4mxClassID@@H@std@@V?$allocator@U?$pair@$$CBW4mxClassID@@H@std@@@2@@std@@QEAAPEAU?$_Tree_node@U?$pair@$$CBW4mxClassID@@H@std@@PEAX@2@XZ 000000018001584c     mex_opencv_2.4:MxArray.obj
 0004:0000084c       $pdata$?_Buynode0@?$_Tree_buy@U?$pair@$$CBHW4mxClassID@@@std@@V?$allocator@U?$pair@$$CBHW4mxClassID@@@std@@@2@@std@@QEAAPEAU?$_Tree_node@U?$pair@$$CBHW4mxClassID@@@std@@PEAX@2@XZ 000000018001584c     mex_opencv_2.4:MxArray.obj
 0004:00000858       $pdata$?_Destroy_if_not_nil@?$_Tree@V?$_Tmap_traits@HV?$basic_string@DU?$char_traits@D@std@@V?$allocator@D@2@@std@@U?$less@H@2@V?$allocator@U?$pair@$$CBHV?$basic_string@DU?$char_traits@D@std@@V?$allocator@D@2@@std@@@std@@@2@$0A@@std@@@std@@IEAAXPEAU?$_Tree_node@U?$pair@$$CBHV?$basic_string@DU?$char_traits@D@std@@V?$allocator@D@2@@std@@@std@@PEAX@2@@Z 0000000180015858     mex_opencv_2.4:MxArray.obj
 0004:00000864       $pdata$??$_Insert_at@AEAU?$pair@$$CBV?$basic_string@DU?$char_traits@D@std@@V?$allocator@D@2@@std@@H@std@@PEAU?$_Tree_node@U?$pair@$$CBV?$basic_string@DU?$char_traits@D@std@@V?$allocator@D@2@@std@@H@std@@PEAX@2@@?$_Tree@V?$_Tmap_traits@V?$basic_string@DU?$char_traits@D@std@@V?$allocator@D@2@@std@@HU?$less@V?$basic_string@DU?$char_traits@D@std@@V?$allocator@D@2@@std@@@2@V?$allocator@U?$pair@$$CBV?$basic_string@DU?$char_traits@D@std@@V?$allocator@D@2@@std@@H@std@@@2@$0A@@std@@@std@@IEAA?AV?$_Tree_iterator@V?$_Tree_val@U?$_Tree_simple_types@U?$pair@$$CBV?$basic_string@DU?$char_traits@D@std@@V?$allocator@D@2@@std@@H@std@@@std@@@std@@@1@_NPEAU?$_Tree_node@U?$pair@$$CBV?$basic_string@DU?$char_traits@D@std@@V?$allocator@D@2@@std@@H@std@@PEAX@1@AEAU?$pair@$$CBV?$basic_string@DU?$char_traits@D@std@@V?$allocator@D@2@@std@@H@1@1@Z 0000000180015864     mex_opencv_2.4:MxArray.obj
 0004:00000870       $pdata$??$_Insert_nohint@AEAU?$pair@$$CBV?$basic_string@DU?$char_traits@D@std@@V?$allocator@D@2@@std@@H@std@@PEAU?$_Tree_node@U?$pair@$$CBV?$basic_string@DU?$char_traits@D@std@@V?$allocator@D@2@@std@@H@std@@PEAX@2@@?$_Tree@V?$_Tmap_traits@V?$basic_string@DU?$char_traits@D@std@@V?$allocator@D@2@@std@@HU?$less@V?$basic_string@DU?$char_traits@D@std@@V?$allocator@D@2@@std@@@2@V?$allocator@U?$pair@$$CBV?$basic_string@DU?$char_traits@D@std@@V?$allocator@D@2@@std@@H@std@@@2@$0A@@std@@@std@@IEAA?AU?$pair@V?$_Tree_iterator@V?$_Tree_val@U?$_Tree_simple_types@U?$pair@$$CBV?$basic_string@DU?$char_traits@D@std@@V?$allocator@D@2@@std@@H@std@@@std@@@std@@@std@@_N@1@_NAEAU?$pair@$$CBV?$basic_string@DU?$char_traits@D@std@@V?$allocator@D@2@@std@@H@1@PEAU?$_Tree_node@U?$pair@$$CBV?$basic_string@DU?$char_traits@D@std@@V?$allocator@D@2@@std@@H@std@@PEAX@1@@Z 0000000180015870     mex_opencv_2.4:MxArray.obj
 0004:0000087c       $pdata$??$_Insert_at@AEAU?$pair@$$CBHW4mxClassID@@@std@@PEAU?$_Tree_node@U?$pair@$$CBHW4mxClassID@@@std@@PEAX@2@@?$_Tree@V?$_Tmap_traits@HW4mxClassID@@U?$less@H@std@@V?$allocator@U?$pair@$$CBHW4mxClassID@@@std@@@3@$0A@@std@@@std@@IEAA?AV?$_Tree_iterator@V?$_Tree_val@U?$_Tree_simple_types@U?$pair@$$CBHW4mxClassID@@@std@@@std@@@std@@@1@_NPEAU?$_Tree_node@U?$pair@$$CBHW4mxClassID@@@std@@PEAX@1@AEAU?$pair@$$CBHW4mxClassID@@@1@1@Z 000000018001587c     mex_opencv_2.4:MxArray.obj
 0004:0000087c       $pdata$??$_Insert_at@AEAU?$pair@$$CBW4mxClassID@@H@std@@PEAU?$_Tree_node@U?$pair@$$CBW4mxClassID@@H@std@@PEAX@2@@?$_Tree@V?$_Tmap_traits@W4mxClassID@@HU?$less@W4mxClassID@@@std@@V?$allocator@U?$pair@$$CBW4mxClassID@@H@std@@@3@$0A@@std@@@std@@IEAA?AV?$_Tree_iterator@V?$_Tree_val@U?$_Tree_simple_types@U?$pair@$$CBW4mxClassID@@H@std@@@std@@@std@@@1@_NPEAU?$_Tree_node@U?$pair@$$CBW4mxClassID@@H@std@@PEAX@1@AEAU?$pair@$$CBW4mxClassID@@H@1@1@Z 000000018001587c     mex_opencv_2.4:MxArray.obj
 0004:00000888       $pdata$??$_Insert_nohint@AEAU?$pair@$$CBW4mxClassID@@H@std@@PEAU?$_Tree_node@U?$pair@$$CBW4mxClassID@@H@std@@PEAX@2@@?$_Tree@V?$_Tmap_traits@W4mxClassID@@HU?$less@W4mxClassID@@@std@@V?$allocator@U?$pair@$$CBW4mxClassID@@H@std@@@3@$0A@@std@@@std@@IEAA?AU?$pair@V?$_Tree_iterator@V?$_Tree_val@U?$_Tree_simple_types@U?$pair@$$CBW4mxClassID@@H@std@@@std@@@std@@@std@@_N@1@_NAEAU?$pair@$$CBW4mxClassID@@H@1@PEAU?$_Tree_node@U?$pair@$$CBW4mxClassID@@H@std@@PEAX@1@@Z 0000000180015888     mex_opencv_2.4:MxArray.obj
 0004:00000888       $pdata$??$_Insert_nohint@AEAU?$pair@$$CBHW4mxClassID@@@std@@PEAU?$_Tree_node@U?$pair@$$CBHW4mxClassID@@@std@@PEAX@2@@?$_Tree@V?$_Tmap_traits@HW4mxClassID@@U?$less@H@std@@V?$allocator@U?$pair@$$CBHW4mxClassID@@@std@@@3@$0A@@std@@@std@@IEAA?AU?$pair@V?$_Tree_iterator@V?$_Tree_val@U?$_Tree_simple_types@U?$pair@$$CBHW4mxClassID@@@std@@@std@@@std@@@std@@_N@1@_NAEAU?$pair@$$CBHW4mxClassID@@@1@PEAU?$_Tree_node@U?$pair@$$CBHW4mxClassID@@@std@@PEAX@1@@Z 0000000180015888     mex_opencv_2.4:MxArray.obj
 0004:00000894       $pdata$??$_Insert_at@AEAU?$pair@$$CBHV?$basic_string@DU?$char_traits@D@std@@V?$allocator@D@2@@std@@@std@@PEAU?$_Tree_node@U?$pair@$$CBHV?$basic_string@DU?$char_traits@D@std@@V?$allocator@D@2@@std@@@std@@PEAX@2@@?$_Tree@V?$_Tmap_traits@HV?$basic_string@DU?$char_traits@D@std@@V?$allocator@D@2@@std@@U?$less@H@2@V?$allocator@U?$pair@$$CBHV?$basic_string@DU?$char_traits@D@std@@V?$allocator@D@2@@std@@@std@@@2@$0A@@std@@@std@@IEAA?AV?$_Tree_iterator@V?$_Tree_val@U?$_Tree_simple_types@U?$pair@$$CBHV?$basic_string@DU?$char_traits@D@std@@V?$allocator@D@2@@std@@@std@@@std@@@std@@@1@_NPEAU?$_Tree_node@U?$pair@$$CBHV?$basic_string@DU?$char_traits@D@std@@V?$allocator@D@2@@std@@@std@@PEAX@1@AEAU?$pair@$$CBHV?$basic_string@DU?$char_traits@D@std@@V?$allocator@D@2@@std@@@1@1@Z 0000000180015894     mex_opencv_2.4:MxArray.obj
 0004:000008a0       $pdata$??$_Insert_nohint@AEAU?$pair@$$CBHV?$basic_string@DU?$char_traits@D@std@@V?$allocator@D@2@@std@@@std@@PEAU?$_Tree_node@U?$pair@$$CBHV?$basic_string@DU?$char_traits@D@std@@V?$allocator@D@2@@std@@@std@@PEAX@2@@?$_Tree@V?$_Tmap_traits@HV?$basic_string@DU?$char_traits@D@std@@V?$allocator@D@2@@std@@U?$less@H@2@V?$allocator@U?$pair@$$CBHV?$basic_string@DU?$char_traits@D@std@@V?$allocator@D@2@@std@@@std@@@2@$0A@@std@@@std@@IEAA?AU?$pair@V?$_Tree_iterator@V?$_Tree_val@U?$_Tree_simple_types@U?$pair@$$CBHV?$basic_string@DU?$char_traits@D@std@@V?$allocator@D@2@@std@@@std@@@std@@@std@@@std@@_N@1@_NAEAU?$pair@$$CBHV?$basic_string@DU?$char_traits@D@std@@V?$allocator@D@2@@std@@@1@PEAU?$_Tree_node@U?$pair@$$CBHV?$basic_string@DU?$char_traits@D@std@@V?$allocator@D@2@@std@@@std@@PEAX@1@@Z 00000001800158a0     mex_opencv_2.4:MxArray.obj
 0004:000008ac       $pdata$??$_Buynode@AEAU?$pair@$$CBV?$basic_string@DU?$char_traits@D@std@@V?$allocator@D@2@@std@@H@std@@@?$_Tree_buy@U?$pair@$$CBV?$basic_string@DU?$char_traits@D@std@@V?$allocator@D@2@@std@@H@std@@V?$allocator@U?$pair@$$CBV?$basic_string@DU?$char_traits@D@std@@V?$allocator@D@2@@std@@H@std@@@2@@std@@QEAAPEAU?$_Tree_node@U?$pair@$$CBV?$basic_string@DU?$char_traits@D@std@@V?$allocator@D@2@@std@@H@std@@PEAX@1@AEAU?$pair@$$CBV?$basic_string@DU?$char_traits@D@std@@V?$allocator@D@2@@std@@H@1@@Z 00000001800158ac     mex_opencv_2.4:MxArray.obj
 0004:000008b8       $pdata$??$_Buynode@AEAU?$pair@$$CBW4mxClassID@@H@std@@@?$_Tree_buy@U?$pair@$$CBW4mxClassID@@H@std@@V?$allocator@U?$pair@$$CBW4mxClassID@@H@std@@@2@@std@@QEAAPEAU?$_Tree_node@U?$pair@$$CBW4mxClassID@@H@std@@PEAX@1@AEAU?$pair@$$CBW4mxClassID@@H@1@@Z 00000001800158b8     mex_opencv_2.4:MxArray.obj
 0004:000008b8       $pdata$??$_Buynode@AEAU?$pair@$$CBHW4mxClassID@@@std@@@?$_Tree_buy@U?$pair@$$CBHW4mxClassID@@@std@@V?$allocator@U?$pair@$$CBHW4mxClassID@@@std@@@2@@std@@QEAAPEAU?$_Tree_node@U?$pair@$$CBHW4mxClassID@@@std@@PEAX@1@AEAU?$pair@$$CBHW4mxClassID@@@1@@Z 00000001800158b8     mex_opencv_2.4:MxArray.obj
 0004:000008c4       $pdata$??$_Buynode@AEAU?$pair@$$CBHV?$basic_string@DU?$char_traits@D@std@@V?$allocator@D@2@@std@@@std@@@?$_Tree_buy@U?$pair@$$CBHV?$basic_string@DU?$char_traits@D@std@@V?$allocator@D@2@@std@@@std@@V?$allocator@U?$pair@$$CBHV?$basic_string@DU?$char_traits@D@std@@V?$allocator@D@2@@std@@@std@@@2@@std@@QEAAPEAU?$_Tree_node@U?$pair@$$CBHV?$basic_string@DU?$char_traits@D@std@@V?$allocator@D@2@@std@@@std@@PEAX@1@AEAU?$pair@$$CBHV?$basic_string@DU?$char_traits@D@std@@V?$allocator@D@2@@std@@@1@@Z 00000001800158c4     mex_opencv_2.4:MxArray.obj
 0004:000008dc       $pdata$__atonexitinit      00000001800158dc     MSVCRT:atonexit.obj
 0004:000008e8       $pdata$_onexit             00000001800158e8     MSVCRT:atonexit.obj
 0004:000008f4       $pdata$atexit              00000001800158f4     MSVCRT:atonexit.obj
 0004:00000900       $pdata$??_Etype_info@@UEAAPEAXI@Z 0000000180015900     MSVCRT:ti_inst.obj
 0004:0000090c       $pdata$pre_c_init          000000018001590c     MSVCRT:crtdll.obj
 0004:00000918       $pdata$_CRT_INIT           0000000180015918     MSVCRT:crtdll.obj
 0004:00000924       $pdata$_DllMainCRTStartup  0000000180015924     MSVCRT:crtdll.obj
 0004:00000930       $pdata$__DllMainCRTStartup 0000000180015930     MSVCRT:crtdll.obj
 0004:0000093c       $pdata$__raise_securityfailure 000000018001593c     MSVCRT:gs_report.obj
 0004:00000948       $pdata$__report_gsfailure  0000000180015948     MSVCRT:gs_report.obj
 0004:00000954       $pdata$??_M@YAXPEAX_KHP6AX0@Z@Z 0000000180015954     MSVCRT:ehvecdtr.obj
 0004:00000960       $pdata$?__ArrayUnwind@@YAXPEAX_KHP6AX0@Z@Z 0000000180015960     MSVCRT:ehvecdtr.obj
 0004:0000096c       $pdata$_IsNonwritableInCurrentImage 000000018001596c     MSVCRT:pesect.obj
 0004:00000978       $pdata$__security_init_cookie 0000000180015978     MSVCRT:gs_support.obj
 0004:00000984       $pdata$DllMain             0000000180015984     MSVCRT:dllmain.obj
 0004:00000990       $pdata$_RTC_Initialize     0000000180015990     MSVCRT:initsect.obj
 0004:0000099c       $pdata$_RTC_Terminate      000000018001599c     MSVCRT:initsect.obj
 0004:000009a8       $pdata$__GSHandlerCheck    00000001800159a8     MSVCRT:gshandler.obj
 0004:000009b4       $pdata$__GSHandlerCheckCommon 00000001800159b4     MSVCRT:gshandler.obj
 0004:000009c0       $pdata$__GSHandlerCheck_EH 00000001800159c0     MSVCRT:gshandlereh.obj
 0004:000009cc       $pdata$?catch$1@?0??_Copy@?$basic_string@DU?$char_traits@D@std@@V?$allocator@D@2@@std@@QEAAX_K0@Z@4HA 00000001800159cc     diversity.obj
 0004:000009d8       $pdata$?catch$0@?0??_Copy@?$basic_string@DU?$char_traits@D@std@@V?$allocator@D@2@@std@@QEAAX_K0@Z@4HA 00000001800159d8     diversity.obj
 0004:000009e4       $pdata$mexFunction$catch$0 00000001800159e4     main.obj
 0004:000009f0       $pdata$mexFunction$catch$1 00000001800159f0     main.obj
 0004:000009fc       $pdata$?dtor$0@?0???0?$basic_ostringstream@DU?$char_traits@D@std@@V?$allocator@D@2@@std@@QEAA@H@Z@4HA 00000001800159fc     main.obj
 0004:00000a08       $pdata$?dtor$0@?0???$?HDU?$char_traits@D@std@@V?$allocator@D@1@@std@@YA?AV?$basic_string@DU?$char_traits@D@std@@V?$allocator@D@2@@0@AEBV10@0@Z@4HA 0000000180015a08     main.obj
 0004:00000a14       $pdata$?catch$0@?0???$?6U?$char_traits@D@std@@@std@@YAAEAV?$basic_ostream@DU?$char_traits@D@std@@@0@AEAV10@PEBD@Z@4HA 0000000180015a14     main.obj
 0004:00000a20       $pdata$?catch$0@?0???$?6DU?$char_traits@D@std@@V?$allocator@D@1@@std@@YAAEAV?$basic_ostream@DU?$char_traits@D@std@@@0@AEAV10@AEBV?$basic_string@DU?$char_traits@D@std@@V?$allocator@D@2@@0@@Z@4HA 0000000180015a20     main.obj
 0004:00000a2c       $pdata$?catch$0@?0???$?6U?$char_traits@D@std@@@std@@YAAEAV?$basic_ostream@DU?$char_traits@D@std@@@0@AEAV10@D@Z@4HA 0000000180015a2c     main.obj
 0004:00000a38       $pdata$?catch$0@?0???0?$_Tree@V?$_Tmap_traits@V?$basic_string@DU?$char_traits@D@std@@V?$allocator@D@2@@std@@HU?$less@V?$basic_string@DU?$char_traits@D@std@@V?$allocator@D@2@@std@@@2@V?$allocator@U?$pair@$$CBV?$basic_string@DU?$char_traits@D@std@@V?$allocator@D@2@@std@@H@std@@@2@$0A@@std@@@std@@QEAA@AEBV01@AEBV?$allocator@U?$pair@$$CBV?$basic_string@DU?$char_traits@D@std@@V?$allocator@D@2@@std@@H@std@@@1@@Z@4HA 0000000180015a38     mex_opencv_2.4:MxArray.obj
 0004:00000a44       $pdata$?catch$0@?0???0?$_Tree@V?$_Tmap_traits@W4mxClassID@@HU?$less@W4mxClassID@@@std@@V?$allocator@U?$pair@$$CBW4mxClassID@@H@std@@@3@$0A@@std@@@std@@QEAA@AEBV01@AEBV?$allocator@U?$pair@$$CBW4mxClassID@@H@std@@@1@@Z@4HA 0000000180015a44     mex_opencv_2.4:MxArray.obj
 0004:00000a50       $pdata$?catch$0@?0???0?$_Tree@V?$_Tmap_traits@HW4mxClassID@@U?$less@H@std@@V?$allocator@U?$pair@$$CBHW4mxClassID@@@std@@@3@$0A@@std@@@std@@QEAA@AEBV01@AEBV?$allocator@U?$pair@$$CBHW4mxClassID@@@std@@@1@@Z@4HA 0000000180015a50     mex_opencv_2.4:MxArray.obj
 0004:00000a5c       $pdata$?catch$0@?0???0?$_Tree@V?$_Tmap_traits@HV?$basic_string@DU?$char_traits@D@std@@V?$allocator@D@2@@std@@U?$less@H@2@V?$allocator@U?$pair@$$CBHV?$basic_string@DU?$char_traits@D@std@@V?$allocator@D@2@@std@@@std@@@2@$0A@@std@@@std@@QEAA@AEBV01@AEBV?$allocator@U?$pair@$$CBHV?$basic_string@DU?$char_traits@D@std@@V?$allocator@D@2@@std@@@std@@@1@@Z@4HA 0000000180015a5c     mex_opencv_2.4:MxArray.obj
 0004:00000a68       $pdata$?dtor$0@?0???$_Buynode@AEBUpiecewise_construct_t@std@@V?$tuple@AEBV?$basic_string@DU?$char_traits@D@std@@V?$allocator@D@2@@std@@@2@V?$tuple@$$$V@2@@?$_Tree_buy@U?$pair@$$CBV?$basic_string@DU?$char_traits@D@std@@V?$allocator@D@2@@std@@H@std@@V?$allocator@U?$pair@$$CBV?$basic_string@DU?$char_traits@D@std@@V?$allocator@D@2@@std@@H@std@@@2@@std@@QEAAPEAU?$_Tree_node@U?$pair@$$CBV?$basic_string@DU?$char_traits@D@std@@V?$allocator@D@2@@std@@H@std@@PEAX@1@AEBUpiecewise_construct_t@1@$$QEAV?$tuple@AEBV?$basic_string@DU?$char_traits@D@std@@V?$allocator@D@2@@std@@@1@$$QEAV?$tuple@$$$V@1@@Z@4HA 0000000180015a68     mex_opencv_2.4:MxArray.obj
 0004:00000a74       $pdata$?catch$0@?0???$_Buynode@AEBUpiecewise_construct_t@std@@V?$tuple@AEBV?$basic_string@DU?$char_traits@D@std@@V?$allocator@D@2@@std@@@2@V?$tuple@$$$V@2@@?$_Tree_buy@U?$pair@$$CBV?$basic_string@DU?$char_traits@D@std@@V?$allocator@D@2@@std@@H@std@@V?$allocator@U?$pair@$$CBV?$basic_string@DU?$char_traits@D@std@@V?$allocator@D@2@@std@@H@std@@@2@@std@@QEAAPEAU?$_Tree_node@U?$pair@$$CBV?$basic_string@DU?$char_traits@D@std@@V?$allocator@D@2@@std@@H@std@@PEAX@1@AEBUpiecewise_construct_t@1@$$QEAV?$tuple@AEBV?$basic_string@DU?$char_traits@D@std@@V?$allocator@D@2@@std@@@1@$$QEAV?$tuple@$$$V@1@@Z@4HA 0000000180015a74     mex_opencv_2.4:MxArray.obj
 0004:00000a80       $pdata$?catch$0@?0???$_Insert_hint@AEAU?$pair@$$CBV?$basic_string@DU?$char_traits@D@std@@V?$allocator@D@2@@std@@H@std@@PEAU?$_Tree_node@U?$pair@$$CBV?$basic_string@DU?$char_traits@D@std@@V?$allocator@D@2@@std@@H@std@@PEAX@2@@?$_Tree@V?$_Tmap_traits@V?$basic_string@DU?$char_traits@D@std@@V?$allocator@D@2@@std@@HU?$less@V?$basic_string@DU?$char_traits@D@std@@V?$allocator@D@2@@std@@@2@V?$allocator@U?$pair@$$CBV?$basic_string@DU?$char_traits@D@std@@V?$allocator@D@2@@std@@H@std@@@2@$0A@@std@@@std@@IEAA?AV?$_Tree_iterator@V?$_Tree_val@U?$_Tree_simple_types@U?$pair@$$CBV?$basic_string@DU?$char_traits@D@std@@V?$allocator@D@2@@std@@H@std@@@std@@@std@@@1@V?$_Tree_const_iterator@V?$_Tree_val@U?$_Tree_simple_types@U?$pair@$$CBV?$basic_string@DU?$char_traits@D@std@@V?$allocator@D@2@@std@@H@std@@@std@@@std@@@1@AEAU?$pair@$$CBV?$basic_string@DU?$char_traits@D@std@@V?$allocator@D@2@@std@@H@1@PEAU?$_Tree_node@U?$pair@$$CBV?$basic_string@DU?$char_traits@D@std@@V?$allocator@D@2@@std@@H@std@@PEAX@1@@Z@4HA 0000000180015a80     mex_opencv_2.4:MxArray.obj
 0004:00000a8c       $pdata$?catch$0@?0???$_Copy_nodes@U?$integral_constant@_N$0A@@std@@@?$_Tree@V?$_Tmap_traits@V?$basic_string@DU?$char_traits@D@std@@V?$allocator@D@2@@std@@HU?$less@V?$basic_string@DU?$char_traits@D@std@@V?$allocator@D@2@@std@@@2@V?$allocator@U?$pair@$$CBV?$basic_string@DU?$char_traits@D@std@@V?$allocator@D@2@@std@@H@std@@@2@$0A@@std@@@std@@IEAAPEAU?$_Tree_node@U?$pair@$$CBV?$basic_string@DU?$char_traits@D@std@@V?$allocator@D@2@@std@@H@std@@PEAX@1@PEAU21@0U?$integral_constant@_N$0A@@1@@Z@4HA 0000000180015a8c     mex_opencv_2.4:MxArray.obj
 0004:00000a98       $pdata$?catch$0@?0???$_Insert_hint@AEAU?$pair@$$CBW4mxClassID@@H@std@@PEAU?$_Tree_node@U?$pair@$$CBW4mxClassID@@H@std@@PEAX@2@@?$_Tree@V?$_Tmap_traits@W4mxClassID@@HU?$less@W4mxClassID@@@std@@V?$allocator@U?$pair@$$CBW4mxClassID@@H@std@@@3@$0A@@std@@@std@@IEAA?AV?$_Tree_iterator@V?$_Tree_val@U?$_Tree_simple_types@U?$pair@$$CBW4mxClassID@@H@std@@@std@@@std@@@1@V?$_Tree_const_iterator@V?$_Tree_val@U?$_Tree_simple_types@U?$pair@$$CBW4mxClassID@@H@std@@@std@@@std@@@1@AEAU?$pair@$$CBW4mxClassID@@H@1@PEAU?$_Tree_node@U?$pair@$$CBW4mxClassID@@H@std@@PEAX@1@@Z@4HA 0000000180015a98     mex_opencv_2.4:MxArray.obj
 0004:00000a98       $pdata$?catch$0@?0???$_Insert_hint@AEAU?$pair@$$CBHW4mxClassID@@@std@@PEAU?$_Tree_node@U?$pair@$$CBHW4mxClassID@@@std@@PEAX@2@@?$_Tree@V?$_Tmap_traits@HW4mxClassID@@U?$less@H@std@@V?$allocator@U?$pair@$$CBHW4mxClassID@@@std@@@3@$0A@@std@@@std@@IEAA?AV?$_Tree_iterator@V?$_Tree_val@U?$_Tree_simple_types@U?$pair@$$CBHW4mxClassID@@@std@@@std@@@std@@@1@V?$_Tree_const_iterator@V?$_Tree_val@U?$_Tree_simple_types@U?$pair@$$CBHW4mxClassID@@@std@@@std@@@std@@@1@AEAU?$pair@$$CBHW4mxClassID@@@1@PEAU?$_Tree_node@U?$pair@$$CBHW4mxClassID@@@std@@PEAX@1@@Z@4HA 0000000180015a98     mex_opencv_2.4:MxArray.obj
 0004:00000aa4       $pdata$?catch$0@?0???$_Copy_nodes@U?$integral_constant@_N$0A@@std@@@?$_Tree@V?$_Tmap_traits@HW4mxClassID@@U?$less@H@std@@V?$allocator@U?$pair@$$CBHW4mxClassID@@@std@@@3@$0A@@std@@@std@@IEAAPEAU?$_Tree_node@U?$pair@$$CBHW4mxClassID@@@std@@PEAX@1@PEAU21@0U?$integral_constant@_N$0A@@1@@Z@4HA 0000000180015aa4     mex_opencv_2.4:MxArray.obj
 0004:00000aa4       $pdata$?catch$0@?0???$_Copy_nodes@U?$integral_constant@_N$0A@@std@@@?$_Tree@V?$_Tmap_traits@W4mxClassID@@HU?$less@W4mxClassID@@@std@@V?$allocator@U?$pair@$$CBW4mxClassID@@H@std@@@3@$0A@@std@@@std@@IEAAPEAU?$_Tree_node@U?$pair@$$CBW4mxClassID@@H@std@@PEAX@1@PEAU21@0U?$integral_constant@_N$0A@@1@@Z@4HA 0000000180015aa4     mex_opencv_2.4:MxArray.obj
 0004:00000ab0       $pdata$?catch$0@?0???$_Insert_hint@AEAU?$pair@$$CBHV?$basic_string@DU?$char_traits@D@std@@V?$allocator@D@2@@std@@@std@@PEAU?$_Tree_node@U?$pair@$$CBHV?$basic_string@DU?$char_traits@D@std@@V?$allocator@D@2@@std@@@std@@PEAX@2@@?$_Tree@V?$_Tmap_traits@HV?$basic_string@DU?$char_traits@D@std@@V?$allocator@D@2@@std@@U?$less@H@2@V?$allocator@U?$pair@$$CBHV?$basic_string@DU?$char_traits@D@std@@V?$allocator@D@2@@std@@@std@@@2@$0A@@std@@@std@@IEAA?AV?$_Tree_iterator@V?$_Tree_val@U?$_Tree_simple_types@U?$pair@$$CBHV?$basic_string@DU?$char_traits@D@std@@V?$allocator@D@2@@std@@@std@@@std@@@std@@@1@V?$_Tree_const_iterator@V?$_Tree_val@U?$_Tree_simple_types@U?$pair@$$CBHV?$basic_string@DU?$char_traits@D@std@@V?$allocator@D@2@@std@@@std@@@std@@@std@@@1@AEAU?$pair@$$CBHV?$basic_string@DU?$char_traits@D@std@@V?$allocator@D@2@@std@@@1@PEAU?$_Tree_node@U?$pair@$$CBHV?$basic_string@DU?$char_traits@D@std@@V?$allocator@D@2@@std@@@std@@PEAX@1@@Z@4HA 0000000180015ab0     mex_opencv_2.4:MxArray.obj
 0004:00000abc       $pdata$?catch$0@?0???$_Copy_nodes@U?$integral_constant@_N$0A@@std@@@?$_Tree@V?$_Tmap_traits@HV?$basic_string@DU?$char_traits@D@std@@V?$allocator@D@2@@std@@U?$less@H@2@V?$allocator@U?$pair@$$CBHV?$basic_string@DU?$char_traits@D@std@@V?$allocator@D@2@@std@@@std@@@2@$0A@@std@@@std@@IEAAPEAU?$_Tree_node@U?$pair@$$CBHV?$basic_string@DU?$char_traits@D@std@@V?$allocator@D@2@@std@@@std@@PEAX@1@PEAU21@0U?$integral_constant@_N$0A@@1@@Z@4HA 0000000180015abc     mex_opencv_2.4:MxArray.obj
 0004:00000ac8       $pdata$?catch$0@?0???$_Insert_nohint@AEAU?$pair@$$CBV?$basic_string@DU?$char_traits@D@std@@V?$allocator@D@2@@std@@H@std@@PEAU?$_Tree_node@U?$pair@$$CBV?$basic_string@DU?$char_traits@D@std@@V?$allocator@D@2@@std@@H@std@@PEAX@2@@?$_Tree@V?$_Tmap_traits@V?$basic_string@DU?$char_traits@D@std@@V?$allocator@D@2@@std@@HU?$less@V?$basic_string@DU?$char_traits@D@std@@V?$allocator@D@2@@std@@@2@V?$allocator@U?$pair@$$CBV?$basic_string@DU?$char_traits@D@std@@V?$allocator@D@2@@std@@H@std@@@2@$0A@@std@@@std@@IEAA?AU?$pair@V?$_Tree_iterator@V?$_Tree_val@U?$_Tree_simple_types@U?$pair@$$CBV?$basic_string@DU?$char_traits@D@std@@V?$allocator@D@2@@std@@H@std@@@std@@@std@@@std@@_N@1@_NAEAU?$pair@$$CBV?$basic_string@DU?$char_traits@D@std@@V?$allocator@D@2@@std@@H@1@PEAU?$_Tree_node@U?$pair@$$CBV?$basic_string@DU?$char_traits@D@std@@V?$allocator@D@2@@std@@H@std@@PEAX@1@@Z@4HA 0000000180015ac8     mex_opencv_2.4:MxArray.obj
 0004:00000ad4       $pdata$?catch$0@?0???$_Insert_nohint@AEAU?$pair@$$CBHW4mxClassID@@@std@@PEAU?$_Tree_node@U?$pair@$$CBHW4mxClassID@@@std@@PEAX@2@@?$_Tree@V?$_Tmap_traits@HW4mxClassID@@U?$less@H@std@@V?$allocator@U?$pair@$$CBHW4mxClassID@@@std@@@3@$0A@@std@@@std@@IEAA?AU?$pair@V?$_Tree_iterator@V?$_Tree_val@U?$_Tree_simple_types@U?$pair@$$CBHW4mxClassID@@@std@@@std@@@std@@@std@@_N@1@_NAEAU?$pair@$$CBHW4mxClassID@@@1@PEAU?$_Tree_node@U?$pair@$$CBHW4mxClassID@@@std@@PEAX@1@@Z@4HA 0000000180015ad4     mex_opencv_2.4:MxArray.obj
 0004:00000ad4       $pdata$?catch$0@?0???$_Insert_nohint@AEAU?$pair@$$CBW4mxClassID@@H@std@@PEAU?$_Tree_node@U?$pair@$$CBW4mxClassID@@H@std@@PEAX@2@@?$_Tree@V?$_Tmap_traits@W4mxClassID@@HU?$less@W4mxClassID@@@std@@V?$allocator@U?$pair@$$CBW4mxClassID@@H@std@@@3@$0A@@std@@@std@@IEAA?AU?$pair@V?$_Tree_iterator@V?$_Tree_val@U?$_Tree_simple_types@U?$pair@$$CBW4mxClassID@@H@std@@@std@@@std@@@std@@_N@1@_NAEAU?$pair@$$CBW4mxClassID@@H@1@PEAU?$_Tree_node@U?$pair@$$CBW4mxClassID@@H@std@@PEAX@1@@Z@4HA 0000000180015ad4     mex_opencv_2.4:MxArray.obj
 0004:00000ae0       $pdata$?catch$0@?0???$_Insert_nohint@AEAU?$pair@$$CBHV?$basic_string@DU?$char_traits@D@std@@V?$allocator@D@2@@std@@@std@@PEAU?$_Tree_node@U?$pair@$$CBHV?$basic_string@DU?$char_traits@D@std@@V?$allocator@D@2@@std@@@std@@PEAX@2@@?$_Tree@V?$_Tmap_traits@HV?$basic_string@DU?$char_traits@D@std@@V?$allocator@D@2@@std@@U?$less@H@2@V?$allocator@U?$pair@$$CBHV?$basic_string@DU?$char_traits@D@std@@V?$allocator@D@2@@std@@@std@@@2@$0A@@std@@@std@@IEAA?AU?$pair@V?$_Tree_iterator@V?$_Tree_val@U?$_Tree_simple_types@U?$pair@$$CBHV?$basic_string@DU?$char_traits@D@std@@V?$allocator@D@2@@std@@@std@@@std@@@std@@@std@@_N@1@_NAEAU?$pair@$$CBHV?$basic_string@DU?$char_traits@D@std@@V?$allocator@D@2@@std@@@1@PEAU?$_Tree_node@U?$pair@$$CBHV?$basic_string@DU?$char_traits@D@std@@V?$allocator@D@2@@std@@@std@@PEAX@1@@Z@4HA 0000000180015ae0     mex_opencv_2.4:MxArray.obj
 0004:00000aec       $pdata$?dtor$0@?0???$_Buynode@AEAU?$pair@$$CBV?$basic_string@DU?$char_traits@D@std@@V?$allocator@D@2@@std@@H@std@@@?$_Tree_buy@U?$pair@$$CBV?$basic_string@DU?$char_traits@D@std@@V?$allocator@D@2@@std@@H@std@@V?$allocator@U?$pair@$$CBV?$basic_string@DU?$char_traits@D@std@@V?$allocator@D@2@@std@@H@std@@@2@@std@@QEAAPEAU?$_Tree_node@U?$pair@$$CBV?$basic_string@DU?$char_traits@D@std@@V?$allocator@D@2@@std@@H@std@@PEAX@1@AEAU?$pair@$$CBV?$basic_string@DU?$char_traits@D@std@@V?$allocator@D@2@@std@@H@1@@Z@4HA 0000000180015aec     mex_opencv_2.4:MxArray.obj
 0004:00000af8       $pdata$?catch$0@?0???$_Buynode@AEAU?$pair@$$CBV?$basic_string@DU?$char_traits@D@std@@V?$allocator@D@2@@std@@H@std@@@?$_Tree_buy@U?$pair@$$CBV?$basic_string@DU?$char_traits@D@std@@V?$allocator@D@2@@std@@H@std@@V?$allocator@U?$pair@$$CBV?$basic_string@DU?$char_traits@D@std@@V?$allocator@D@2@@std@@H@std@@@2@@std@@QEAAPEAU?$_Tree_node@U?$pair@$$CBV?$basic_string@DU?$char_traits@D@std@@V?$allocator@D@2@@std@@H@std@@PEAX@1@AEAU?$pair@$$CBV?$basic_string@DU?$char_traits@D@std@@V?$allocator@D@2@@std@@H@1@@Z@4HA 0000000180015af8     mex_opencv_2.4:MxArray.obj
 0004:00000b04       $pdata$?dtor$0@?0???$_Buynode@AEAU?$pair@$$CBHV?$basic_string@DU?$char_traits@D@std@@V?$allocator@D@2@@std@@@std@@@?$_Tree_buy@U?$pair@$$CBHV?$basic_string@DU?$char_traits@D@std@@V?$allocator@D@2@@std@@@std@@V?$allocator@U?$pair@$$CBHV?$basic_string@DU?$char_traits@D@std@@V?$allocator@D@2@@std@@@std@@@2@@std@@QEAAPEAU?$_Tree_node@U?$pair@$$CBHV?$basic_string@DU?$char_traits@D@std@@V?$allocator@D@2@@std@@@std@@PEAX@1@AEAU?$pair@$$CBHV?$basic_string@DU?$char_traits@D@std@@V?$allocator@D@2@@std@@@1@@Z@4HA 0000000180015b04     mex_opencv_2.4:MxArray.obj
 0004:00000b10       $pdata$?catch$0@?0???$_Buynode@AEAU?$pair@$$CBHV?$basic_string@DU?$char_traits@D@std@@V?$allocator@D@2@@std@@@std@@@?$_Tree_buy@U?$pair@$$CBHV?$basic_string@DU?$char_traits@D@std@@V?$allocator@D@2@@std@@@std@@V?$allocator@U?$pair@$$CBHV?$basic_string@DU?$char_traits@D@std@@V?$allocator@D@2@@std@@@std@@@2@@std@@QEAAPEAU?$_Tree_node@U?$pair@$$CBHV?$basic_string@DU?$char_traits@D@std@@V?$allocator@D@2@@std@@@std@@PEAX@1@AEAU?$pair@$$CBHV?$basic_string@DU?$char_traits@D@std@@V?$allocator@D@2@@std@@@1@@Z@4HA 0000000180015b10     mex_opencv_2.4:MxArray.obj
 0004:00000b1c       $pdata$_onexit$fin$0       0000000180015b1c     MSVCRT:atonexit.obj
 0004:00000b28       $pdata$__DllMainCRTStartup$filt$0 0000000180015b28     MSVCRT:crtdll.obj
 0004:00000b34       $pdata$__DllMainCRTStartup$fin$1 0000000180015b34     MSVCRT:crtdll.obj
 0004:00000b40       $pdata$?fin$0@?0???_M@YAXPEAX_KHP6AX0@Z@Z@4HA 0000000180015b40     MSVCRT:ehvecdtr.obj
 0004:00000b4c       $pdata$?filt$0@?0??__ArrayUnwind@@YAXPEAX_KHP6AX0@Z@Z@4HA 0000000180015b4c     MSVCRT:ehvecdtr.obj
 0004:00000b58       $pdata$_IsNonwritableInCurrentImage$filt$0 0000000180015b58     MSVCRT:pesect.obj
 0004:00000b64       $pdata$??__F?All@DiversityTypes@@2V?$vector@PEBDV?$allocator@PEBD@std@@@std@@A@@YAXXZ 0000000180015b64     main.obj
 0004:00000b70       $pdata$??__Ftictoc_stack@@YAXXZ 0000000180015b70     tictoc.obj
 0004:00000b7c       $pdata$??__FDepthOf@?A0x6487b33d@@YAXXZ 0000000180015b7c     mex_opencv_2.4:MxArray.obj
 0004:00000b88       $pdata$??__FClassIDOf@?A0x6487b33d@@YAXXZ 0000000180015b88     mex_opencv_2.4:MxArray.obj
 0004:00000b94       $pdata$??__FInvTermCritType@?A0x6487b33d@@YAXXZ 0000000180015b94     mex_opencv_2.4:MxArray.obj
 0004:00000ba0       $pdata$??__FTermCritType@?A0x6487b33d@@YAXXZ 0000000180015ba0     mex_opencv_2.4:MxArray.obj
